
Fir.elf:     file format elf32-littlearm

Sections:
Idx Name          Size      VMA       LMA       File off  Algn
  0 .text         00004330  10001000  10001000  00001000  2**3
                  CONTENTS, ALLOC, LOAD, READONLY, CODE
  1 .ARM.exidx    00000010  10005330  10005330  00005330  2**2
                  CONTENTS, ALLOC, LOAD, READONLY, DATA
  2 .rodata       00000188  10005340  10005340  00005340  2**2
                  CONTENTS, ALLOC, LOAD, READONLY, DATA
  3 .VENEER_Code  00000138  2000000c  100054d0  0000800c  2**2
                  CONTENTS, ALLOC, LOAD, READONLY, CODE
  4 .GUARD_Band   0000000c  20000144  00000000  00000144  2**0
                  ALLOC
  5 Stack         00000800  20000150  00000000  00000150  2**0
                  ALLOC
  6 .bss          000005f8  20000950  20000950  00010950  2**2
                  ALLOC
  7 .data         00000e3c  20000f50  10005608  00008f50  2**3
                  CONTENTS, ALLOC, LOAD, DATA
  8 .debug_aranges 00000170  00000000  00000000  00009d90  2**3
                  CONTENTS, READONLY, DEBUGGING
  9 .debug_info   00000f8c  00000000  00000000  00009f00  2**0
                  CONTENTS, READONLY, DEBUGGING
 10 .debug_abbrev 00000577  00000000  00000000  0000ae8c  2**0
                  CONTENTS, READONLY, DEBUGGING
 11 .debug_line   0000161d  00000000  00000000  0000b403  2**0
                  CONTENTS, READONLY, DEBUGGING
 12 .debug_frame  000008b8  00000000  00000000  0000ca20  2**2
                  CONTENTS, READONLY, DEBUGGING
 13 .debug_str    00037648  00000000  00000000  0000d2d8  2**0
                  CONTENTS, READONLY, DEBUGGING
 14 .debug_loc    000006fe  00000000  00000000  00044920  2**0
                  CONTENTS, READONLY, DEBUGGING
 15 .debug_ranges 00000100  00000000  00000000  00045020  2**3
                  CONTENTS, READONLY, DEBUGGING
 16 .build_attributes 00000705  00000000  00000000  00045120  2**0
                  CONTENTS, READONLY
 17 .debug_macro  0000a794  00000000  00000000  00045825  2**0
                  CONTENTS, READONLY, DEBUGGING

Disassembly of section .text:

10001000 <__Xmc1300_interrupt_vector_cortex_m>:
10001000:	50 09 00 20 19 10 00 10 9d 11 00 10 9f 11 00 10     P.. ............
10001010:	00 00 00 80 00 00 00 80                             ........

10001018 <__Xmc1300_reset_cortex_m>:
__Xmc1300_reset_cortex_m:
    .fnstart

    /* C routines are likely to be called. Setup the stack now */
    /* This is already setup by BootROM,hence this step is optional */ 
    LDR R0,=__Xmc1300_stack
10001018:	4803      	ldr	r0, [pc, #12]	; (10001028 <__Xmc1300_reset_cortex_m+0x10>)
    MOV SP,R0
1000101a:	4685      	mov	sp, r0

    /* Clock tree, External memory setup etc may be done here */    
    LDR     R0, =SystemInit
1000101c:	4803      	ldr	r0, [pc, #12]	; (1000102c <__Xmc1300_reset_cortex_m+0x14>)
    BLX     R0
1000101e:	4780      	blx	r0

/* 
   SystemInit_DAVE3() is provided by DAVE3 code generation engine. It is  
   weakly defined here though for a potential override.
*/
    LDR     R0, =SystemInit_DAVE3 	
10001020:	4803      	ldr	r0, [pc, #12]	; (10001030 <__Xmc1300_reset_cortex_m+0x18>)
    BLX     R0
10001022:	4780      	blx	r0

    B       __Xmc1300_Program_Loader 
10001024:	e006      	b.n	10001034 <__Xmc1300_Program_Loader>
10001026:	0000      	.short	0x0000
__Xmc1300_reset_cortex_m:
    .fnstart

    /* C routines are likely to be called. Setup the stack now */
    /* This is already setup by BootROM,hence this step is optional */ 
    LDR R0,=__Xmc1300_stack
10001028:	20000950 	.word	0x20000950
    MOV SP,R0

    /* Clock tree, External memory setup etc may be done here */    
    LDR     R0, =SystemInit
1000102c:	100011e1 	.word	0x100011e1

/* 
   SystemInit_DAVE3() is provided by DAVE3 code generation engine. It is  
   weakly defined here though for a potential override.
*/
    LDR     R0, =SystemInit_DAVE3 	
10001030:	100010c9 	.word	0x100010c9

10001034 <__Xmc1300_Program_Loader>:
   .fnstart
   /* Memories are accessible now*/
   
   /* DATA COPY */
   /* R0 = Start address, R1 = Destination address, R2 = Size */
   LDR R0, =DataLoadAddr
10001034:	4818      	ldr	r0, [pc, #96]	; (10001098 <SKIPVENEERCOPY+0x12>)
   LDR R1, =__Xmc1300_sData
10001036:	4919      	ldr	r1, [pc, #100]	; (1000109c <SKIPVENEERCOPY+0x16>)
   LDR R2, =__Xmc1300_Data_Size
10001038:	4a19      	ldr	r2, [pc, #100]	; (100010a0 <SKIPVENEERCOPY+0x1a>)

   /* Is there anything to be copied? */
   CMP R2,#0
1000103a:	2a00      	cmp	r2, #0
   BEQ SKIPCOPY
1000103c:	d00a      	beq.n	10001054 <SKIPCOPY>
   
   /* For bytecount less than 4, at least 1 word must be copied */
   CMP R2,#4
1000103e:	2a04      	cmp	r2, #4
   BCS STARTCOPY
10001040:	d200      	bcs.n	10001044 <STARTCOPY>
   
   /* Byte count < 4 ; so bump it up */
   MOVS R2,#4
10001042:	2204      	movs	r2, #4

10001044 <STARTCOPY>:
STARTCOPY:
   /* 
      R2 contains byte count. Change it to word count. It is ensured in the 
      linker script that the length is always word aligned.
   */
   LSRS R2,R2,#2 /* Divide by 4 to obtain word count */
10001044:	0892      	lsrs	r2, r2, #2

10001046 <COPYLOOP>:

   /* The proverbial loop from the schooldays */
COPYLOOP:
   LDR R3,[R0]
10001046:	6803      	ldr	r3, [r0, #0]
   STR R3,[R1]
10001048:	600b      	str	r3, [r1, #0]
   SUBS R2,#1
1000104a:	3a01      	subs	r2, #1
   BEQ SKIPCOPY
1000104c:	d002      	beq.n	10001054 <SKIPCOPY>
   ADDS R0,#4
1000104e:	3004      	adds	r0, #4
   ADDS R1,#4
10001050:	3104      	adds	r1, #4
   B COPYLOOP
10001052:	e7f8      	b.n	10001046 <COPYLOOP>

10001054 <SKIPCOPY>:
    
SKIPCOPY:
   /* BSS CLEAR */
   LDR R0, =__Xmc1300_sBSS     /* Start of BSS */
10001054:	4813      	ldr	r0, [pc, #76]	; (100010a4 <SKIPVENEERCOPY+0x1e>)
   LDR R1, =__Xmc1300_BSS_Size /* BSS size in bytes */
10001056:	4914      	ldr	r1, [pc, #80]	; (100010a8 <SKIPVENEERCOPY+0x22>)

   /* Find out if there are items assigned to BSS */   
   CMP R1,#0 
10001058:	2900      	cmp	r1, #0
   BEQ SKIPCLEAR
1000105a:	d009      	beq.n	10001070 <SKIPCLEAR>

   /* At least 1 word must be copied */
   CMP R1,#4
1000105c:	2904      	cmp	r1, #4
   BCS STARTCLEAR
1000105e:	d200      	bcs.n	10001062 <STARTCLEAR>
   
   /* Byte count < 4 ; so bump it up to a word*/
   MOVS R1,#4
10001060:	2104      	movs	r1, #4

10001062 <STARTCLEAR>:

STARTCLEAR:
   LSRS R1,R1,#2            /* BSS size in words */
10001062:	0889      	lsrs	r1, r1, #2
   
   MOVS R2,#0
10001064:	2200      	movs	r2, #0

10001066 <CLEARLOOP>:
CLEARLOOP:
   STR R2,[R0]
10001066:	6002      	str	r2, [r0, #0]
   SUBS R1,#1
10001068:	3901      	subs	r1, #1
   BEQ SKIPCLEAR
1000106a:	d001      	beq.n	10001070 <SKIPCLEAR>
   ADDS R0,#4
1000106c:	3004      	adds	r0, #4
   B CLEARLOOP
1000106e:	e7fa      	b.n	10001066 <CLEARLOOP>

10001070 <SKIPCLEAR>:
    
SKIPCLEAR:

   /* VENEER COPY */
   /* R0 = Start address, R1 = Destination address, R2 = Size */
   LDR R0, =VeneerLoadAddr
10001070:	480e      	ldr	r0, [pc, #56]	; (100010ac <SKIPVENEERCOPY+0x26>)
   LDR R1, =VeneerStart
10001072:	490f      	ldr	r1, [pc, #60]	; (100010b0 <SKIPVENEERCOPY+0x2a>)
   LDR R2, =VeneerSize
10001074:	4a0f      	ldr	r2, [pc, #60]	; (100010b4 <SKIPVENEERCOPY+0x2e>)

10001076 <STARTVENEERCOPY>:
STARTVENEERCOPY:
   /* 
      R2 contains byte count. Change it to word count. It is ensured in the 
      linker script that the length is always word aligned.
   */
   LSRS R2,R2,#2 /* Divide by 4 to obtain word count */
10001076:	0892      	lsrs	r2, r2, #2

10001078 <VENEERCOPYLOOP>:

   /* The proverbial loop from the schooldays */
VENEERCOPYLOOP:
   LDR R3,[R0]
10001078:	6803      	ldr	r3, [r0, #0]
   STR R3,[R1]
1000107a:	600b      	str	r3, [r1, #0]
   SUBS R2,#1
1000107c:	3a01      	subs	r2, #1
   BEQ SKIPVENEERCOPY
1000107e:	d002      	beq.n	10001086 <SKIPVENEERCOPY>
   ADDS R0,#4
10001080:	3004      	adds	r0, #4
   ADDS R1,#4
10001082:	3104      	adds	r1, #4
   B VENEERCOPYLOOP
10001084:	e7f8      	b.n	10001078 <VENEERCOPYLOOP>

10001086 <SKIPVENEERCOPY>:
    
SKIPVENEERCOPY:
   /* Update System Clock */
   LDR R0,=SystemCoreClockUpdate
10001086:	480c      	ldr	r0, [pc, #48]	; (100010b8 <SKIPVENEERCOPY+0x32>)
   BLX R0
10001088:	4780      	blx	r0

   /* Reset stack pointer before zipping off to user application, Optional */
   LDR R0,=__Xmc1300_stack 
1000108a:	480c      	ldr	r0, [pc, #48]	; (100010bc <SKIPVENEERCOPY+0x36>)
   MOV SP,R0
1000108c:	4685      	mov	sp, r0

   MOVS R0,#0
1000108e:	2000      	movs	r0, #0
   MOVS R1,#0
10001090:	2100      	movs	r1, #0
   LDR R2, =main
10001092:	4a0b      	ldr	r2, [pc, #44]	; (100010c0 <SKIPVENEERCOPY+0x3a>)
   MOV PC,R2
10001094:	4697      	mov	pc, r2
10001096:	0000      	.short	0x0000
   .fnstart
   /* Memories are accessible now*/
   
   /* DATA COPY */
   /* R0 = Start address, R1 = Destination address, R2 = Size */
   LDR R0, =DataLoadAddr
10001098:	10005608 	.word	0x10005608
   LDR R1, =__Xmc1300_sData
1000109c:	20000f50 	.word	0x20000f50
   LDR R2, =__Xmc1300_Data_Size
100010a0:	00000e3c 	.word	0x00000e3c
   ADDS R1,#4
   B COPYLOOP
    
SKIPCOPY:
   /* BSS CLEAR */
   LDR R0, =__Xmc1300_sBSS     /* Start of BSS */
100010a4:	20000950 	.word	0x20000950
   LDR R1, =__Xmc1300_BSS_Size /* BSS size in bytes */
100010a8:	000005f8 	.word	0x000005f8
    
SKIPCLEAR:

   /* VENEER COPY */
   /* R0 = Start address, R1 = Destination address, R2 = Size */
   LDR R0, =VeneerLoadAddr
100010ac:	100054d0 	.word	0x100054d0
   LDR R1, =VeneerStart
100010b0:	2000000c 	.word	0x2000000c
   LDR R2, =VeneerSize
100010b4:	00000138 	.word	0x00000138
   ADDS R1,#4
   B VENEERCOPYLOOP
    
SKIPVENEERCOPY:
   /* Update System Clock */
   LDR R0,=SystemCoreClockUpdate
100010b8:	100011ed 	.word	0x100011ed
   BLX R0

   /* Reset stack pointer before zipping off to user application, Optional */
   LDR R0,=__Xmc1300_stack 
100010bc:	20000950 	.word	0x20000950
   MOV SP,R0

   MOVS R0,#0
   MOVS R1,#0
   LDR R2, =main
100010c0:	100010cd 	.word	0x100010cd

100010c4 <AllowClkInitByStartup>:
*/   
     .section ".XmcStartup"
    .weak   AllowClkInitByStartup
    .type   AllowClkInitByStartup, %function
AllowClkInitByStartup:
    MOVS R0,#1
100010c4:	2001      	movs	r0, #1
    BX LR
100010c6:	4770      	bx	lr

100010c8 <SystemInit_DAVE3>:
setting up of external memory interfaces.
*/
     .weak SystemInit_DAVE3
     .type SystemInit_DAVE3, %function
SystemInit_DAVE3:
     NOP
100010c8:	46c0      	nop			; (mov r8, r8)
     BX LR
100010ca:	4770      	bx	lr

100010cc <main>:
/* ----------------------------------------------------------------------
 * FIR LPF Example
 * ------------------------------------------------------------------- */

int32_t main(void)
{
100010cc:	b580      	push	{r7, lr}
100010ce:	b08a      	sub	sp, #40	; 0x28
100010d0:	af02      	add	r7, sp, #8
  arm_fir_instance_f32 S;
  arm_status status;
  float32_t  *inputF32, *outputF32;

  /* Initialize input and output buffer pointers */
  inputF32 = &testInput_f32_1kHz_15kHz[0];
100010d2:	4b29      	ldr	r3, [pc, #164]	; (10001178 <main+0xac>)
100010d4:	617b      	str	r3, [r7, #20]
  outputF32 = &testOutput[0];
100010d6:	4b29      	ldr	r3, [pc, #164]	; (1000117c <main+0xb0>)
100010d8:	613b      	str	r3, [r7, #16]

  /* Call FIR init function to initialize the instance structure. */
  arm_fir_init_f32(&S, NUM_TAPS, (float32_t *)&firCoeffs32[0], &firStateF32[0], blockSize);
100010da:	4b29      	ldr	r3, [pc, #164]	; (10001180 <main+0xb4>)
100010dc:	6818      	ldr	r0, [r3, #0]
100010de:	1d39      	adds	r1, r7, #4
100010e0:	4a28      	ldr	r2, [pc, #160]	; (10001184 <main+0xb8>)
100010e2:	4b29      	ldr	r3, [pc, #164]	; (10001188 <main+0xbc>)
100010e4:	9000      	str	r0, [sp, #0]
100010e6:	1c08      	adds	r0, r1, #0
100010e8:	211d      	movs	r1, #29
100010ea:	f000 fdd9 	bl	10001ca0 <arm_fir_init_f32>

  /* ----------------------------------------------------------------------
  ** Call the FIR process function for every blockSize samples
  ** ------------------------------------------------------------------- */

  for(i=0; i < numBlocks; i++)
100010ee:	2300      	movs	r3, #0
100010f0:	61fb      	str	r3, [r7, #28]
100010f2:	e015      	b.n	10001120 <main+0x54>
  {
    arm_fir_f32(&S, inputF32 + (i * blockSize), outputF32 + (i * blockSize), blockSize);
100010f4:	4b22      	ldr	r3, [pc, #136]	; (10001180 <main+0xb4>)
100010f6:	681b      	ldr	r3, [r3, #0]
100010f8:	69fa      	ldr	r2, [r7, #28]
100010fa:	4353      	muls	r3, r2
100010fc:	009b      	lsls	r3, r3, #2
100010fe:	697a      	ldr	r2, [r7, #20]
10001100:	18d1      	adds	r1, r2, r3
10001102:	4b1f      	ldr	r3, [pc, #124]	; (10001180 <main+0xb4>)
10001104:	681b      	ldr	r3, [r3, #0]
10001106:	69fa      	ldr	r2, [r7, #28]
10001108:	4353      	muls	r3, r2
1000110a:	009b      	lsls	r3, r3, #2
1000110c:	693a      	ldr	r2, [r7, #16]
1000110e:	18d2      	adds	r2, r2, r3
10001110:	4b1b      	ldr	r3, [pc, #108]	; (10001180 <main+0xb4>)
10001112:	681b      	ldr	r3, [r3, #0]
10001114:	1d38      	adds	r0, r7, #4
10001116:	f000 fd2b 	bl	10001b70 <arm_fir_f32>

  /* ----------------------------------------------------------------------
  ** Call the FIR process function for every blockSize samples
  ** ------------------------------------------------------------------- */

  for(i=0; i < numBlocks; i++)
1000111a:	69fb      	ldr	r3, [r7, #28]
1000111c:	3301      	adds	r3, #1
1000111e:	61fb      	str	r3, [r7, #28]
10001120:	4b1a      	ldr	r3, [pc, #104]	; (1000118c <main+0xc0>)
10001122:	681b      	ldr	r3, [r3, #0]
10001124:	69fa      	ldr	r2, [r7, #28]
10001126:	429a      	cmp	r2, r3
10001128:	d3e4      	bcc.n	100010f4 <main+0x28>
  /* ----------------------------------------------------------------------
  ** Compare the generated output against the reference output computed
  ** in MATLAB.
  ** ------------------------------------------------------------------- */

  snr = arm_snr_f32(&refOutput[0], &testOutput[0], TEST_LENGTH_SAMPLES);
1000112a:	4919      	ldr	r1, [pc, #100]	; (10001190 <main+0xc4>)
1000112c:	4a13      	ldr	r2, [pc, #76]	; (1000117c <main+0xb0>)
1000112e:	23a0      	movs	r3, #160	; 0xa0
10001130:	005b      	lsls	r3, r3, #1
10001132:	1c08      	adds	r0, r1, #0
10001134:	1c11      	adds	r1, r2, #0
10001136:	1c1a      	adds	r2, r3, #0
10001138:	f000 f89a 	bl	10001270 <arm_snr_f32>
1000113c:	1c02      	adds	r2, r0, #0
1000113e:	4b15      	ldr	r3, [pc, #84]	; (10001194 <main+0xc8>)
10001140:	601a      	str	r2, [r3, #0]

  if (snr < SNR_THRESHOLD_F32)
10001142:	4b14      	ldr	r3, [pc, #80]	; (10001194 <main+0xc8>)
10001144:	681b      	ldr	r3, [r3, #0]
10001146:	1c18      	adds	r0, r3, #0
10001148:	4913      	ldr	r1, [pc, #76]	; (10001198 <main+0xcc>)
1000114a:	f001 f9d1 	bl	100024f0 <__aeabi_fcmplt>
1000114e:	1c03      	adds	r3, r0, #0
10001150:	2b00      	cmp	r3, #0
10001152:	d004      	beq.n	1000115e <main+0x92>
  {
    status = ARM_MATH_TEST_FAILURE;
10001154:	1c3b      	adds	r3, r7, #0
10001156:	331b      	adds	r3, #27
10001158:	22fa      	movs	r2, #250	; 0xfa
1000115a:	701a      	strb	r2, [r3, #0]
1000115c:	e003      	b.n	10001166 <main+0x9a>
  }
  else
  {
    status = ARM_MATH_SUCCESS;
1000115e:	1c3b      	adds	r3, r7, #0
10001160:	331b      	adds	r3, #27
10001162:	2200      	movs	r2, #0
10001164:	701a      	strb	r2, [r3, #0]

  /* ----------------------------------------------------------------------
  ** Loop here if the signal does not match the reference output.
  ** ------------------------------------------------------------------- */

  if( status != ARM_MATH_SUCCESS)
10001166:	1c3b      	adds	r3, r7, #0
10001168:	331b      	adds	r3, #27
1000116a:	781b      	ldrb	r3, [r3, #0]
1000116c:	b25b      	sxtb	r3, r3
1000116e:	2b00      	cmp	r3, #0
10001170:	d000      	beq.n	10001174 <main+0xa8>
  {
    while(1);
10001172:	e7fe      	b.n	10001172 <main+0xa6>
  }

  while(1);                             /* main function does not return */
10001174:	e7fe      	b.n	10001174 <main+0xa8>
10001176:	46c0      	nop			; (mov r8, r8)
10001178:	20000f50 	.word	0x20000f50
1000117c:	20000950 	.word	0x20000950
10001180:	20001950 	.word	0x20001950
10001184:	10005340 	.word	0x10005340
10001188:	20000e50 	.word	0x20000e50
1000118c:	20001954 	.word	0x20001954
10001190:	20001450 	.word	0x20001450
10001194:	20000f40 	.word	0x20000f40
10001198:	430c0000 	.word	0x430c0000

1000119c <NMI_Handler>:
/* Default exception Handlers - Users may override this default functionality by
   defining handlers of the same name in their C code */
    .thumb 
    .text

    Insert_ExceptionHandler NMI_Handler
1000119c:	e7fe      	b.n	1000119c <NMI_Handler>

1000119e <HardFault_Handler>:
/* ======================================================================== */
    Insert_ExceptionHandler HardFault_Handler
1000119e:	e7fe      	b.n	1000119e <HardFault_Handler>

100011a0 <SVC_Handler>:
/* ======================================================================== */
    Insert_ExceptionHandler SVC_Handler
100011a0:	e7fe      	b.n	100011a0 <SVC_Handler>

100011a2 <PendSV_Handler>:
/* ======================================================================== */
    Insert_ExceptionHandler PendSV_Handler
100011a2:	e7fe      	b.n	100011a2 <PendSV_Handler>

100011a4 <SysTick_Handler>:
/* ======================================================================== */
    Insert_ExceptionHandler SysTick_Handler
100011a4:	e7fe      	b.n	100011a4 <SysTick_Handler>

100011a6 <SCU_0_IRQHandler>:
/* ============= END OF EXCEPTION HANDLER DEFINITION ======================== */

/* ============= START OF INTERRUPT HANDLER DEFINITION ====================== */

/* IRQ Handlers */
    Insert_ExceptionHandler SCU_0_IRQHandler
100011a6:	e7fe      	b.n	100011a6 <SCU_0_IRQHandler>

100011a8 <SCU_1_IRQHandler>:
/* ======================================================================== */
    Insert_ExceptionHandler SCU_1_IRQHandler
100011a8:	e7fe      	b.n	100011a8 <SCU_1_IRQHandler>

100011aa <SCU_2_IRQHandler>:
/* ======================================================================== */
    Insert_ExceptionHandler SCU_2_IRQHandler
100011aa:	e7fe      	b.n	100011aa <SCU_2_IRQHandler>

100011ac <ERU0_0_IRQHandler>:
/* ======================================================================== */
    Insert_ExceptionHandler ERU0_0_IRQHandler
100011ac:	e7fe      	b.n	100011ac <ERU0_0_IRQHandler>

100011ae <ERU0_1_IRQHandler>:
/* ======================================================================== */
    Insert_ExceptionHandler ERU0_1_IRQHandler
100011ae:	e7fe      	b.n	100011ae <ERU0_1_IRQHandler>

100011b0 <ERU0_2_IRQHandler>:
/* ======================================================================== */
    Insert_ExceptionHandler ERU0_2_IRQHandler
100011b0:	e7fe      	b.n	100011b0 <ERU0_2_IRQHandler>

100011b2 <ERU0_3_IRQHandler>:
/* ======================================================================== */
    Insert_ExceptionHandler ERU0_3_IRQHandler
100011b2:	e7fe      	b.n	100011b2 <ERU0_3_IRQHandler>

100011b4 <MATH0_0_IRQHandler>:
/* ======================================================================== */
    Insert_ExceptionHandler MATH0_0_IRQHandler
100011b4:	e7fe      	b.n	100011b4 <MATH0_0_IRQHandler>

100011b6 <VADC0_C0_0_IRQHandler>:
/* ======================================================================== */
    Insert_ExceptionHandler VADC0_C0_0_IRQHandler
100011b6:	e7fe      	b.n	100011b6 <VADC0_C0_0_IRQHandler>

100011b8 <VADC0_C0_1_IRQHandler>:
/* ======================================================================== */
    Insert_ExceptionHandler VADC0_C0_1_IRQHandler
100011b8:	e7fe      	b.n	100011b8 <VADC0_C0_1_IRQHandler>

100011ba <VADC0_G0_0_IRQHandler>:
/* ======================================================================== */
    Insert_ExceptionHandler VADC0_G0_0_IRQHandler
100011ba:	e7fe      	b.n	100011ba <VADC0_G0_0_IRQHandler>

100011bc <VADC0_G0_1_IRQHandler>:
/* ======================================================================== */
    Insert_ExceptionHandler VADC0_G0_1_IRQHandler
100011bc:	e7fe      	b.n	100011bc <VADC0_G0_1_IRQHandler>

100011be <VADC0_G1_0_IRQHandler>:
/* ======================================================================== */
    Insert_ExceptionHandler VADC0_G1_0_IRQHandler
100011be:	e7fe      	b.n	100011be <VADC0_G1_0_IRQHandler>

100011c0 <VADC0_G1_1_IRQHandler>:
/* ======================================================================== */
    Insert_ExceptionHandler VADC0_G1_1_IRQHandler
100011c0:	e7fe      	b.n	100011c0 <VADC0_G1_1_IRQHandler>

100011c2 <CCU40_0_IRQHandler>:
/* ======================================================================== */
    Insert_ExceptionHandler CCU40_0_IRQHandler
100011c2:	e7fe      	b.n	100011c2 <CCU40_0_IRQHandler>

100011c4 <CCU40_1_IRQHandler>:
/* ======================================================================== */
    Insert_ExceptionHandler CCU40_1_IRQHandler
100011c4:	e7fe      	b.n	100011c4 <CCU40_1_IRQHandler>

100011c6 <CCU40_2_IRQHandler>:
/* ======================================================================== */
    Insert_ExceptionHandler CCU40_2_IRQHandler
100011c6:	e7fe      	b.n	100011c6 <CCU40_2_IRQHandler>

100011c8 <CCU40_3_IRQHandler>:
/* ======================================================================== */
    Insert_ExceptionHandler CCU40_3_IRQHandler
100011c8:	e7fe      	b.n	100011c8 <CCU40_3_IRQHandler>

100011ca <CCU80_0_IRQHandler>:
/* ======================================================================== */
    Insert_ExceptionHandler CCU80_0_IRQHandler
100011ca:	e7fe      	b.n	100011ca <CCU80_0_IRQHandler>

100011cc <CCU80_1_IRQHandler>:
/* ======================================================================== */
    Insert_ExceptionHandler CCU80_1_IRQHandler
100011cc:	e7fe      	b.n	100011cc <CCU80_1_IRQHandler>

100011ce <POSIF0_0_IRQHandler>:
/* ======================================================================== */
    Insert_ExceptionHandler POSIF0_0_IRQHandler
100011ce:	e7fe      	b.n	100011ce <POSIF0_0_IRQHandler>

100011d0 <POSIF0_1_IRQHandler>:
/* ======================================================================== */
    Insert_ExceptionHandler POSIF0_1_IRQHandler
100011d0:	e7fe      	b.n	100011d0 <POSIF0_1_IRQHandler>

100011d2 <USIC0_0_IRQHandler>:
/* ======================================================================== */
    Insert_ExceptionHandler USIC0_0_IRQHandler
100011d2:	e7fe      	b.n	100011d2 <USIC0_0_IRQHandler>

100011d4 <USIC0_1_IRQHandler>:
/* ======================================================================== */
    Insert_ExceptionHandler USIC0_1_IRQHandler
100011d4:	e7fe      	b.n	100011d4 <USIC0_1_IRQHandler>

100011d6 <USIC0_2_IRQHandler>:
/* ======================================================================== */
    Insert_ExceptionHandler USIC0_2_IRQHandler
100011d6:	e7fe      	b.n	100011d6 <USIC0_2_IRQHandler>

100011d8 <USIC0_3_IRQHandler>:
/* ======================================================================== */
    Insert_ExceptionHandler USIC0_3_IRQHandler
100011d8:	e7fe      	b.n	100011d8 <USIC0_3_IRQHandler>

100011da <USIC0_4_IRQHandler>:
/* ======================================================================== */
    Insert_ExceptionHandler USIC0_4_IRQHandler
100011da:	e7fe      	b.n	100011da <USIC0_4_IRQHandler>

100011dc <USIC0_5_IRQHandler>:
/* ======================================================================== */
    Insert_ExceptionHandler USIC0_5_IRQHandler
100011dc:	e7fe      	b.n	100011dc <USIC0_5_IRQHandler>

100011de <BCCU0_0_IRQHandler>:
/* ======================================================================== */
    Insert_ExceptionHandler BCCU0_0_IRQHandler
100011de:	e7fe      	b.n	100011de <BCCU0_0_IRQHandler>

100011e0 <SystemInit>:
  * @brief  Setup the microcontroller system.
  * @param  None
  * @retval None
  */
void SystemInit(void)
{    
100011e0:	b580      	push	{r7, lr}
100011e2:	af00      	add	r7, sp, #0

  /*
   * Clock tree setup by CMSIS routines is allowed only in the absence of DAVE
   * Clock app.
   */ 
  if(AllowClkInitByStartup()){ 
100011e4:	f7ff ff6e 	bl	100010c4 <AllowClkInitByStartup>
   * MCLK    = DCO_DCLK
   * PCLK    = MCLK
   * RTC CLK = Standby clock
   */
  }
}
100011e8:	46bd      	mov	sp, r7
100011ea:	bd80      	pop	{r7, pc}

100011ec <SystemCoreClockUpdate>:
  * @note   -  
  * @param  None
  * @retval None
  */
void SystemCoreClockUpdate(void)
{
100011ec:	b580      	push	{r7, lr}
100011ee:	b086      	sub	sp, #24
100011f0:	af00      	add	r7, sp, #0
  uint32_t IDIV, FDIV, CLKCR, Clock;

  CLKCR = SCU_CLK -> CLKCR;
100011f2:	4b1c      	ldr	r3, [pc, #112]	; (10001264 <SystemCoreClockUpdate+0x78>)
100011f4:	681b      	ldr	r3, [r3, #0]
100011f6:	613b      	str	r3, [r7, #16]
  IDIV = (CLKCR & SCU_CLK_CLKCR_IDIV_Msk) >> SCU_CLK_CLKCR_IDIV_Pos;
100011f8:	693a      	ldr	r2, [r7, #16]
100011fa:	23ff      	movs	r3, #255	; 0xff
100011fc:	021b      	lsls	r3, r3, #8
100011fe:	4013      	ands	r3, r2
10001200:	0a1b      	lsrs	r3, r3, #8
10001202:	60fb      	str	r3, [r7, #12]
  FDIV = (CLKCR & SCU_CLK_CLKCR_FDIV_Msk) >> SCU_CLK_CLKCR_FDIV_Pos;
10001204:	693a      	ldr	r2, [r7, #16]
10001206:	23ff      	movs	r3, #255	; 0xff
10001208:	4013      	ands	r3, r2
1000120a:	60bb      	str	r3, [r7, #8]
  
  if(IDIV)
1000120c:	68fb      	ldr	r3, [r7, #12]
1000120e:	2b00      	cmp	r3, #0
10001210:	d01f      	beq.n	10001252 <SystemCoreClockUpdate+0x66>
  {
    /* Divider is enabled and used */
    if(0 == FDIV)
10001212:	68bb      	ldr	r3, [r7, #8]
10001214:	2b00      	cmp	r3, #0
10001216:	d106      	bne.n	10001226 <SystemCoreClockUpdate+0x3a>
     {
       /* No fractional divider, so MCLK = DCO_Clk / (2 * IDIV) */
       Clock = MCLK_MHZ / IDIV;
10001218:	4813      	ldr	r0, [pc, #76]	; (10001268 <SystemCoreClockUpdate+0x7c>)
1000121a:	68f9      	ldr	r1, [r7, #12]
1000121c:	f001 f8c8 	bl	100023b0 <__aeabi_uidiv>
10001220:	1c03      	adds	r3, r0, #0
10001222:	617b      	str	r3, [r7, #20]
10001224:	e017      	b.n	10001256 <SystemCoreClockUpdate+0x6a>
     }
    else
     {
       /* Both integer and fractional divider must be considered */
       /* 1. IDIV + FDIV/256 */
       Q_24_8 FDiv_IDiv_Sum = (IDIV << FRACBITS) + FDIV;  
10001226:	68fb      	ldr	r3, [r7, #12]
10001228:	021a      	lsls	r2, r3, #8
1000122a:	68bb      	ldr	r3, [r7, #8]
1000122c:	18d3      	adds	r3, r2, r3
1000122e:	607b      	str	r3, [r7, #4]

       /* 2. Fixed point division Q24.8 / Q9.8 = Q15.0 */
       Q_15_0 ClockVal = (DCO_DCLK_MULTIPLIER << FRACBITS)/ FDiv_IDiv_Sum;
10001230:	687b      	ldr	r3, [r7, #4]
10001232:	22fa      	movs	r2, #250	; 0xfa
10001234:	0610      	lsls	r0, r2, #24
10001236:	1c19      	adds	r1, r3, #0
10001238:	f001 f8ba 	bl	100023b0 <__aeabi_uidiv>
1000123c:	1c03      	adds	r3, r0, #0
1000123e:	603b      	str	r3, [r7, #0]
       Clock = ((uint32_t)ClockVal) * KHZ_MULTIPLIER;
10001240:	683b      	ldr	r3, [r7, #0]
10001242:	22fa      	movs	r2, #250	; 0xfa
10001244:	0092      	lsls	r2, r2, #2
10001246:	4353      	muls	r3, r2
10001248:	617b      	str	r3, [r7, #20]
       Clock = Clock >> DCO_DCLK_DIVIDER;
1000124a:	697b      	ldr	r3, [r7, #20]
1000124c:	0a5b      	lsrs	r3, r3, #9
1000124e:	617b      	str	r3, [r7, #20]
10001250:	e001      	b.n	10001256 <SystemCoreClockUpdate+0x6a>
     }
  }
  else
  {
    /* Divider bypassed. Simply divide DCO_DCLK by 2 */
    Clock = MCLK_MHZ;
10001252:	4b05      	ldr	r3, [pc, #20]	; (10001268 <SystemCoreClockUpdate+0x7c>)
10001254:	617b      	str	r3, [r7, #20]
  }

  /* Finally with the math class over, update SystemCoreClock */
  SystemCoreClock = Clock;  
10001256:	4b05      	ldr	r3, [pc, #20]	; (1000126c <SystemCoreClockUpdate+0x80>)
10001258:	697a      	ldr	r2, [r7, #20]
1000125a:	601a      	str	r2, [r3, #0]
}
1000125c:	46bd      	mov	sp, r7
1000125e:	b006      	add	sp, #24
10001260:	bd80      	pop	{r7, pc}
10001262:	46c0      	nop			; (mov r8, r8)
10001264:	40010300 	.word	0x40010300
10001268:	01e84800 	.word	0x01e84800
1000126c:	20000f44 	.word	0x20000f44

10001270 <arm_snr_f32>:
 * The function Caluclates signal to noise ratio for the reference output 
 * and test output 
 */

float arm_snr_f32(float *pRef, float *pTest, uint32_t buffSize)
{
10001270:	b590      	push	{r4, r7, lr}
10001272:	b08b      	sub	sp, #44	; 0x2c
10001274:	af00      	add	r7, sp, #0
10001276:	60f8      	str	r0, [r7, #12]
10001278:	60b9      	str	r1, [r7, #8]
1000127a:	607a      	str	r2, [r7, #4]
  float EnergySignal = 0.0, EnergyError = 0.0;
1000127c:	2300      	movs	r3, #0
1000127e:	627b      	str	r3, [r7, #36]	; 0x24
10001280:	2300      	movs	r3, #0
10001282:	613b      	str	r3, [r7, #16]
  uint32_t i;
  float SNR;
  int temp;
  int *test;

  for (i = 0; i < buffSize; i++)
10001284:	2300      	movs	r3, #0
10001286:	623b      	str	r3, [r7, #32]
10001288:	e05f      	b.n	1000134a <arm_snr_f32+0xda>
    {
 	  /* Checking for a NAN value in pRef array */
	  test =   (int *)(&pRef[i]);
1000128a:	6a3b      	ldr	r3, [r7, #32]
1000128c:	009b      	lsls	r3, r3, #2
1000128e:	68fa      	ldr	r2, [r7, #12]
10001290:	18d3      	adds	r3, r2, r3
10001292:	61fb      	str	r3, [r7, #28]
      temp =  *test;
10001294:	69fb      	ldr	r3, [r7, #28]
10001296:	681b      	ldr	r3, [r3, #0]
10001298:	61bb      	str	r3, [r7, #24]

	  if(temp == 0x7FC00000)
1000129a:	69ba      	ldr	r2, [r7, #24]
1000129c:	4b48      	ldr	r3, [pc, #288]	; (100013c0 <arm_snr_f32+0x150>)
1000129e:	429a      	cmp	r2, r3
100012a0:	d101      	bne.n	100012a6 <arm_snr_f32+0x36>
	  {
	  		return(0);
100012a2:	2300      	movs	r3, #0
100012a4:	e081      	b.n	100013aa <arm_snr_f32+0x13a>
	  }

	  /* Checking for a NAN value in pTest array */
	  test =   (int *)(&pTest[i]);
100012a6:	6a3b      	ldr	r3, [r7, #32]
100012a8:	009b      	lsls	r3, r3, #2
100012aa:	68ba      	ldr	r2, [r7, #8]
100012ac:	18d3      	adds	r3, r2, r3
100012ae:	61fb      	str	r3, [r7, #28]
      temp =  *test;
100012b0:	69fb      	ldr	r3, [r7, #28]
100012b2:	681b      	ldr	r3, [r3, #0]
100012b4:	61bb      	str	r3, [r7, #24]

	  if(temp == 0x7FC00000)
100012b6:	69ba      	ldr	r2, [r7, #24]
100012b8:	4b41      	ldr	r3, [pc, #260]	; (100013c0 <arm_snr_f32+0x150>)
100012ba:	429a      	cmp	r2, r3
100012bc:	d101      	bne.n	100012c2 <arm_snr_f32+0x52>
	  {
	  		return(0);
100012be:	2300      	movs	r3, #0
100012c0:	e073      	b.n	100013aa <arm_snr_f32+0x13a>
	  }
      EnergySignal += pRef[i] * pRef[i];
100012c2:	6a3b      	ldr	r3, [r7, #32]
100012c4:	009b      	lsls	r3, r3, #2
100012c6:	68fa      	ldr	r2, [r7, #12]
100012c8:	18d3      	adds	r3, r2, r3
100012ca:	681a      	ldr	r2, [r3, #0]
100012cc:	6a3b      	ldr	r3, [r7, #32]
100012ce:	009b      	lsls	r3, r3, #2
100012d0:	68f9      	ldr	r1, [r7, #12]
100012d2:	18cb      	adds	r3, r1, r3
100012d4:	681b      	ldr	r3, [r3, #0]
100012d6:	1c10      	adds	r0, r2, #0
100012d8:	1c19      	adds	r1, r3, #0
100012da:	f001 fcf9 	bl	10002cd0 <__aeabi_fmul>
100012de:	1c03      	adds	r3, r0, #0
100012e0:	6a78      	ldr	r0, [r7, #36]	; 0x24
100012e2:	1c19      	adds	r1, r3, #0
100012e4:	f001 f92c 	bl	10002540 <__aeabi_fadd>
100012e8:	1c03      	adds	r3, r0, #0
100012ea:	627b      	str	r3, [r7, #36]	; 0x24
      EnergyError += (pRef[i] - pTest[i]) * (pRef[i] - pTest[i]); 
100012ec:	6a3b      	ldr	r3, [r7, #32]
100012ee:	009b      	lsls	r3, r3, #2
100012f0:	68fa      	ldr	r2, [r7, #12]
100012f2:	18d3      	adds	r3, r2, r3
100012f4:	681a      	ldr	r2, [r3, #0]
100012f6:	6a3b      	ldr	r3, [r7, #32]
100012f8:	009b      	lsls	r3, r3, #2
100012fa:	68b9      	ldr	r1, [r7, #8]
100012fc:	18cb      	adds	r3, r1, r3
100012fe:	681b      	ldr	r3, [r3, #0]
10001300:	1c10      	adds	r0, r2, #0
10001302:	1c19      	adds	r1, r3, #0
10001304:	f001 fe14 	bl	10002f30 <__aeabi_fsub>
10001308:	1c03      	adds	r3, r0, #0
1000130a:	1c1c      	adds	r4, r3, #0
1000130c:	6a3b      	ldr	r3, [r7, #32]
1000130e:	009b      	lsls	r3, r3, #2
10001310:	68fa      	ldr	r2, [r7, #12]
10001312:	18d3      	adds	r3, r2, r3
10001314:	681a      	ldr	r2, [r3, #0]
10001316:	6a3b      	ldr	r3, [r7, #32]
10001318:	009b      	lsls	r3, r3, #2
1000131a:	68b9      	ldr	r1, [r7, #8]
1000131c:	18cb      	adds	r3, r1, r3
1000131e:	681b      	ldr	r3, [r3, #0]
10001320:	1c10      	adds	r0, r2, #0
10001322:	1c19      	adds	r1, r3, #0
10001324:	f001 fe04 	bl	10002f30 <__aeabi_fsub>
10001328:	1c03      	adds	r3, r0, #0
1000132a:	1c20      	adds	r0, r4, #0
1000132c:	1c19      	adds	r1, r3, #0
1000132e:	f001 fccf 	bl	10002cd0 <__aeabi_fmul>
10001332:	1c03      	adds	r3, r0, #0
10001334:	1c1a      	adds	r2, r3, #0
10001336:	693b      	ldr	r3, [r7, #16]
10001338:	1c10      	adds	r0, r2, #0
1000133a:	1c19      	adds	r1, r3, #0
1000133c:	f001 f900 	bl	10002540 <__aeabi_fadd>
10001340:	1c03      	adds	r3, r0, #0
10001342:	613b      	str	r3, [r7, #16]
  uint32_t i;
  float SNR;
  int temp;
  int *test;

  for (i = 0; i < buffSize; i++)
10001344:	6a3b      	ldr	r3, [r7, #32]
10001346:	3301      	adds	r3, #1
10001348:	623b      	str	r3, [r7, #32]
1000134a:	6a3a      	ldr	r2, [r7, #32]
1000134c:	687b      	ldr	r3, [r7, #4]
1000134e:	429a      	cmp	r2, r3
10001350:	d39b      	bcc.n	1000128a <arm_snr_f32+0x1a>
      EnergySignal += pRef[i] * pRef[i];
      EnergyError += (pRef[i] - pTest[i]) * (pRef[i] - pTest[i]); 
    }

	/* Checking for a NAN value in EnergyError */
	test =   (int *)(&EnergyError);
10001352:	1c3b      	adds	r3, r7, #0
10001354:	3310      	adds	r3, #16
10001356:	61fb      	str	r3, [r7, #28]
    temp =  *test;
10001358:	69fb      	ldr	r3, [r7, #28]
1000135a:	681b      	ldr	r3, [r3, #0]
1000135c:	61bb      	str	r3, [r7, #24]

    if(temp == 0x7FC00000)
1000135e:	69ba      	ldr	r2, [r7, #24]
10001360:	4b17      	ldr	r3, [pc, #92]	; (100013c0 <arm_snr_f32+0x150>)
10001362:	429a      	cmp	r2, r3
10001364:	d101      	bne.n	1000136a <arm_snr_f32+0xfa>
    {
  		return(0);
10001366:	2300      	movs	r3, #0
10001368:	e01f      	b.n	100013aa <arm_snr_f32+0x13a>
    }
	

  SNR = 10 * log10 (EnergySignal / EnergyError);
1000136a:	693b      	ldr	r3, [r7, #16]
1000136c:	6a78      	ldr	r0, [r7, #36]	; 0x24
1000136e:	1c19      	adds	r1, r3, #0
10001370:	f001 fabc 	bl	100028ec <__aeabi_fdiv>
10001374:	1c03      	adds	r3, r0, #0
10001376:	1c18      	adds	r0, r3, #0
10001378:	f003 fe34 	bl	10004fe4 <__aeabi_f2d>
1000137c:	1c03      	adds	r3, r0, #0
1000137e:	1c0c      	adds	r4, r1, #0
10001380:	1c18      	adds	r0, r3, #0
10001382:	1c21      	adds	r1, r4, #0
10001384:	f000 fca0 	bl	10001cc8 <log10>
10001388:	1c03      	adds	r3, r0, #0
1000138a:	1c0c      	adds	r4, r1, #0
1000138c:	1c18      	adds	r0, r3, #0
1000138e:	1c21      	adds	r1, r4, #0
10001390:	4b0a      	ldr	r3, [pc, #40]	; (100013bc <arm_snr_f32+0x14c>)
10001392:	4a09      	ldr	r2, [pc, #36]	; (100013b8 <arm_snr_f32+0x148>)
10001394:	f002 ffc4 	bl	10004320 <__aeabi_dmul>
10001398:	1c03      	adds	r3, r0, #0
1000139a:	1c0c      	adds	r4, r1, #0
1000139c:	1c18      	adds	r0, r3, #0
1000139e:	1c21      	adds	r1, r4, #0
100013a0:	f003 fe74 	bl	1000508c <__aeabi_d2f>
100013a4:	1c03      	adds	r3, r0, #0
100013a6:	617b      	str	r3, [r7, #20]

  return (SNR);
100013a8:	697b      	ldr	r3, [r7, #20]

}
100013aa:	1c18      	adds	r0, r3, #0
100013ac:	46bd      	mov	sp, r7
100013ae:	b00b      	add	sp, #44	; 0x2c
100013b0:	bd90      	pop	{r4, r7, pc}
100013b2:	46c0      	nop			; (mov r8, r8)
100013b4:	46c0      	nop			; (mov r8, r8)
100013b6:	46c0      	nop			; (mov r8, r8)
100013b8:	00000000 	.word	0x00000000
100013bc:	40240000 	.word	0x40240000
100013c0:	7fc00000 	.word	0x7fc00000
100013c4:	46c0      	nop			; (mov r8, r8)
100013c6:	46c0      	nop			; (mov r8, r8)

100013c8 <arm_provide_guard_bits_q15>:
 * to avoid overflow 
 */

void arm_provide_guard_bits_q15 (q15_t * input_buf, uint32_t blockSize,
                            uint32_t guard_bits)
{
100013c8:	b580      	push	{r7, lr}
100013ca:	b086      	sub	sp, #24
100013cc:	af00      	add	r7, sp, #0
100013ce:	60f8      	str	r0, [r7, #12]
100013d0:	60b9      	str	r1, [r7, #8]
100013d2:	607a      	str	r2, [r7, #4]
  uint32_t i;

  for (i = 0; i < blockSize; i++)
100013d4:	2300      	movs	r3, #0
100013d6:	617b      	str	r3, [r7, #20]
100013d8:	e012      	b.n	10001400 <arm_provide_guard_bits_q15+0x38>
    {
      input_buf[i] = input_buf[i] >> guard_bits;
100013da:	697b      	ldr	r3, [r7, #20]
100013dc:	005b      	lsls	r3, r3, #1
100013de:	68fa      	ldr	r2, [r7, #12]
100013e0:	18d3      	adds	r3, r2, r3
100013e2:	697a      	ldr	r2, [r7, #20]
100013e4:	0052      	lsls	r2, r2, #1
100013e6:	68f9      	ldr	r1, [r7, #12]
100013e8:	188a      	adds	r2, r1, r2
100013ea:	8812      	ldrh	r2, [r2, #0]
100013ec:	b211      	sxth	r1, r2
100013ee:	687a      	ldr	r2, [r7, #4]
100013f0:	1c08      	adds	r0, r1, #0
100013f2:	4110      	asrs	r0, r2
100013f4:	1c02      	adds	r2, r0, #0
100013f6:	b292      	uxth	r2, r2
100013f8:	801a      	strh	r2, [r3, #0]
void arm_provide_guard_bits_q15 (q15_t * input_buf, uint32_t blockSize,
                            uint32_t guard_bits)
{
  uint32_t i;

  for (i = 0; i < blockSize; i++)
100013fa:	697b      	ldr	r3, [r7, #20]
100013fc:	3301      	adds	r3, #1
100013fe:	617b      	str	r3, [r7, #20]
10001400:	697a      	ldr	r2, [r7, #20]
10001402:	68bb      	ldr	r3, [r7, #8]
10001404:	429a      	cmp	r2, r3
10001406:	d3e8      	bcc.n	100013da <arm_provide_guard_bits_q15+0x12>
    {
      input_buf[i] = input_buf[i] >> guard_bits;
    }
}
10001408:	46bd      	mov	sp, r7
1000140a:	b006      	add	sp, #24
1000140c:	bd80      	pop	{r7, pc}
1000140e:	46c0      	nop			; (mov r8, r8)

10001410 <arm_float_to_q12_20>:
 * @return none
 * The function converts floating point values to fixed point(q12.20) values 
 */

void arm_float_to_q12_20(float *pIn, q31_t * pOut, uint32_t numSamples)
{
10001410:	b5f0      	push	{r4, r5, r6, r7, lr}
10001412:	4647      	mov	r7, r8
10001414:	b480      	push	{r7}
10001416:	b086      	sub	sp, #24
10001418:	af00      	add	r7, sp, #0
1000141a:	60f8      	str	r0, [r7, #12]
1000141c:	60b9      	str	r1, [r7, #8]
1000141e:	607a      	str	r2, [r7, #4]
  uint32_t i;

  for (i = 0; i < numSamples; i++)
10001420:	2300      	movs	r3, #0
10001422:	617b      	str	r3, [r7, #20]
10001424:	e058      	b.n	100014d8 <arm_float_to_q12_20+0xc8>
    {
	  /* 1048576.0f corresponds to pow(2, 20) */
      pOut[i] = (q31_t) (pIn[i] * 1048576.0f);
10001426:	697b      	ldr	r3, [r7, #20]
10001428:	009b      	lsls	r3, r3, #2
1000142a:	68ba      	ldr	r2, [r7, #8]
1000142c:	18d4      	adds	r4, r2, r3
1000142e:	697b      	ldr	r3, [r7, #20]
10001430:	009b      	lsls	r3, r3, #2
10001432:	68fa      	ldr	r2, [r7, #12]
10001434:	18d3      	adds	r3, r2, r3
10001436:	681b      	ldr	r3, [r3, #0]
10001438:	1c18      	adds	r0, r3, #0
1000143a:	2193      	movs	r1, #147	; 0x93
1000143c:	05c9      	lsls	r1, r1, #23
1000143e:	f001 fc47 	bl	10002cd0 <__aeabi_fmul>
10001442:	1c03      	adds	r3, r0, #0
10001444:	1c18      	adds	r0, r3, #0
10001446:	f001 ff4d 	bl	100032e4 <__aeabi_f2iz>
1000144a:	1c03      	adds	r3, r0, #0
1000144c:	6023      	str	r3, [r4, #0]

      pOut[i] += pIn[i] > 0 ? 0.5 : -0.5;
1000144e:	697b      	ldr	r3, [r7, #20]
10001450:	009b      	lsls	r3, r3, #2
10001452:	68ba      	ldr	r2, [r7, #8]
10001454:	18d2      	adds	r2, r2, r3
10001456:	4690      	mov	r8, r2
10001458:	697b      	ldr	r3, [r7, #20]
1000145a:	009b      	lsls	r3, r3, #2
1000145c:	68ba      	ldr	r2, [r7, #8]
1000145e:	18d3      	adds	r3, r2, r3
10001460:	681b      	ldr	r3, [r3, #0]
10001462:	1c18      	adds	r0, r3, #0
10001464:	f003 fd84 	bl	10004f70 <__aeabi_i2d>
10001468:	1c05      	adds	r5, r0, #0
1000146a:	1c0e      	adds	r6, r1, #0
1000146c:	697b      	ldr	r3, [r7, #20]
1000146e:	009b      	lsls	r3, r3, #2
10001470:	68fa      	ldr	r2, [r7, #12]
10001472:	18d3      	adds	r3, r2, r3
10001474:	681b      	ldr	r3, [r3, #0]
10001476:	1c18      	adds	r0, r3, #0
10001478:	2100      	movs	r1, #0
1000147a:	f001 f84d 	bl	10002518 <__aeabi_fcmpgt>
1000147e:	1c03      	adds	r3, r0, #0
10001480:	2b00      	cmp	r3, #0
10001482:	d002      	beq.n	1000148a <arm_float_to_q12_20+0x7a>
10001484:	4c1b      	ldr	r4, [pc, #108]	; (100014f4 <arm_float_to_q12_20+0xe4>)
10001486:	4b1a      	ldr	r3, [pc, #104]	; (100014f0 <arm_float_to_q12_20+0xe0>)
10001488:	e001      	b.n	1000148e <arm_float_to_q12_20+0x7e>
1000148a:	4b1b      	ldr	r3, [pc, #108]	; (100014f8 <arm_float_to_q12_20+0xe8>)
1000148c:	4c1b      	ldr	r4, [pc, #108]	; (100014fc <arm_float_to_q12_20+0xec>)
1000148e:	1c28      	adds	r0, r5, #0
10001490:	1c31      	adds	r1, r6, #0
10001492:	1c1a      	adds	r2, r3, #0
10001494:	1c23      	adds	r3, r4, #0
10001496:	f001 ff99 	bl	100033cc <__aeabi_dadd>
1000149a:	1c03      	adds	r3, r0, #0
1000149c:	1c0c      	adds	r4, r1, #0
1000149e:	1c18      	adds	r0, r3, #0
100014a0:	1c21      	adds	r1, r4, #0
100014a2:	f003 fd31 	bl	10004f08 <__aeabi_d2iz>
100014a6:	1c03      	adds	r3, r0, #0
100014a8:	4642      	mov	r2, r8
100014aa:	6013      	str	r3, [r2, #0]

      if (pIn[i] == (float) 1.0)
100014ac:	697b      	ldr	r3, [r7, #20]
100014ae:	009b      	lsls	r3, r3, #2
100014b0:	68fa      	ldr	r2, [r7, #12]
100014b2:	18d3      	adds	r3, r2, r3
100014b4:	681b      	ldr	r3, [r3, #0]
100014b6:	1c18      	adds	r0, r3, #0
100014b8:	21fe      	movs	r1, #254	; 0xfe
100014ba:	0589      	lsls	r1, r1, #22
100014bc:	f001 f812 	bl	100024e4 <__aeabi_fcmpeq>
100014c0:	1c03      	adds	r3, r0, #0
100014c2:	2b00      	cmp	r3, #0
100014c4:	d005      	beq.n	100014d2 <arm_float_to_q12_20+0xc2>
        {
          pOut[i] = 0x000FFFFF;
100014c6:	697b      	ldr	r3, [r7, #20]
100014c8:	009b      	lsls	r3, r3, #2
100014ca:	68ba      	ldr	r2, [r7, #8]
100014cc:	18d3      	adds	r3, r2, r3
100014ce:	4a0c      	ldr	r2, [pc, #48]	; (10001500 <arm_float_to_q12_20+0xf0>)
100014d0:	601a      	str	r2, [r3, #0]

void arm_float_to_q12_20(float *pIn, q31_t * pOut, uint32_t numSamples)
{
  uint32_t i;

  for (i = 0; i < numSamples; i++)
100014d2:	697b      	ldr	r3, [r7, #20]
100014d4:	3301      	adds	r3, #1
100014d6:	617b      	str	r3, [r7, #20]
100014d8:	697a      	ldr	r2, [r7, #20]
100014da:	687b      	ldr	r3, [r7, #4]
100014dc:	429a      	cmp	r2, r3
100014de:	d3a2      	bcc.n	10001426 <arm_float_to_q12_20+0x16>
      if (pIn[i] == (float) 1.0)
        {
          pOut[i] = 0x000FFFFF;
        }
    }
}
100014e0:	46bd      	mov	sp, r7
100014e2:	b006      	add	sp, #24
100014e4:	bc04      	pop	{r2}
100014e6:	4690      	mov	r8, r2
100014e8:	bdf0      	pop	{r4, r5, r6, r7, pc}
100014ea:	46c0      	nop			; (mov r8, r8)
100014ec:	46c0      	nop			; (mov r8, r8)
100014ee:	46c0      	nop			; (mov r8, r8)
100014f0:	00000000 	.word	0x00000000
100014f4:	3fe00000 	.word	0x3fe00000
100014f8:	00000000 	.word	0x00000000
100014fc:	bfe00000 	.word	0xbfe00000
10001500:	000fffff 	.word	0x000fffff
10001504:	46c0      	nop			; (mov r8, r8)
10001506:	46c0      	nop			; (mov r8, r8)

10001508 <arm_compare_fixed_q15>:
 * @param  uint32_t 	number of samples in the buffer
 * @return none 
 */

uint32_t arm_compare_fixed_q15(q15_t *pIn, q15_t * pOut, uint32_t numSamples)
{
10001508:	b580      	push	{r7, lr}
1000150a:	b088      	sub	sp, #32
1000150c:	af00      	add	r7, sp, #0
1000150e:	60f8      	str	r0, [r7, #12]
10001510:	60b9      	str	r1, [r7, #8]
10001512:	607a      	str	r2, [r7, #4]
  uint32_t i; 
  int32_t diff, diffCrnt = 0;
10001514:	2300      	movs	r3, #0
10001516:	617b      	str	r3, [r7, #20]
  uint32_t maxDiff = 0;
10001518:	2300      	movs	r3, #0
1000151a:	61bb      	str	r3, [r7, #24]

  for (i = 0; i < numSamples; i++)
1000151c:	2300      	movs	r3, #0
1000151e:	61fb      	str	r3, [r7, #28]
10001520:	e01b      	b.n	1000155a <arm_compare_fixed_q15+0x52>
  {
  	diff = pIn[i] - pOut[i];
10001522:	69fb      	ldr	r3, [r7, #28]
10001524:	005b      	lsls	r3, r3, #1
10001526:	68fa      	ldr	r2, [r7, #12]
10001528:	18d3      	adds	r3, r2, r3
1000152a:	881b      	ldrh	r3, [r3, #0]
1000152c:	b21a      	sxth	r2, r3
1000152e:	69fb      	ldr	r3, [r7, #28]
10001530:	005b      	lsls	r3, r3, #1
10001532:	68b9      	ldr	r1, [r7, #8]
10001534:	18cb      	adds	r3, r1, r3
10001536:	881b      	ldrh	r3, [r3, #0]
10001538:	b21b      	sxth	r3, r3
1000153a:	1ad3      	subs	r3, r2, r3
1000153c:	613b      	str	r3, [r7, #16]
  	diffCrnt = (diff > 0) ? diff : -diff;
1000153e:	693b      	ldr	r3, [r7, #16]
10001540:	17da      	asrs	r2, r3, #31
10001542:	189b      	adds	r3, r3, r2
10001544:	4053      	eors	r3, r2
10001546:	617b      	str	r3, [r7, #20]

	if(diffCrnt > maxDiff)
10001548:	697a      	ldr	r2, [r7, #20]
1000154a:	69bb      	ldr	r3, [r7, #24]
1000154c:	429a      	cmp	r2, r3
1000154e:	d901      	bls.n	10001554 <arm_compare_fixed_q15+0x4c>
	{
		maxDiff = diffCrnt;
10001550:	697b      	ldr	r3, [r7, #20]
10001552:	61bb      	str	r3, [r7, #24]
{
  uint32_t i; 
  int32_t diff, diffCrnt = 0;
  uint32_t maxDiff = 0;

  for (i = 0; i < numSamples; i++)
10001554:	69fb      	ldr	r3, [r7, #28]
10001556:	3301      	adds	r3, #1
10001558:	61fb      	str	r3, [r7, #28]
1000155a:	69fa      	ldr	r2, [r7, #28]
1000155c:	687b      	ldr	r3, [r7, #4]
1000155e:	429a      	cmp	r2, r3
10001560:	d3df      	bcc.n	10001522 <arm_compare_fixed_q15+0x1a>
	{
		maxDiff = diffCrnt;
	}	
  }

  return(maxDiff);
10001562:	69bb      	ldr	r3, [r7, #24]
}
10001564:	1c18      	adds	r0, r3, #0
10001566:	46bd      	mov	sp, r7
10001568:	b008      	add	sp, #32
1000156a:	bd80      	pop	{r7, pc}

1000156c <arm_compare_fixed_q31>:
 * @param  uint32_t 	number of samples in the buffer
 * @return none 
 */

uint32_t arm_compare_fixed_q31(q31_t *pIn, q31_t * pOut, uint32_t numSamples)
{
1000156c:	b580      	push	{r7, lr}
1000156e:	b088      	sub	sp, #32
10001570:	af00      	add	r7, sp, #0
10001572:	60f8      	str	r0, [r7, #12]
10001574:	60b9      	str	r1, [r7, #8]
10001576:	607a      	str	r2, [r7, #4]
  uint32_t i; 
  int32_t diff, diffCrnt = 0;
10001578:	2300      	movs	r3, #0
1000157a:	617b      	str	r3, [r7, #20]
  uint32_t maxDiff = 0;
1000157c:	2300      	movs	r3, #0
1000157e:	61bb      	str	r3, [r7, #24]

  for (i = 0; i < numSamples; i++)
10001580:	2300      	movs	r3, #0
10001582:	61fb      	str	r3, [r7, #28]
10001584:	e019      	b.n	100015ba <arm_compare_fixed_q31+0x4e>
  {
  	diff = pIn[i] - pOut[i];
10001586:	69fb      	ldr	r3, [r7, #28]
10001588:	009b      	lsls	r3, r3, #2
1000158a:	68fa      	ldr	r2, [r7, #12]
1000158c:	18d3      	adds	r3, r2, r3
1000158e:	681a      	ldr	r2, [r3, #0]
10001590:	69fb      	ldr	r3, [r7, #28]
10001592:	009b      	lsls	r3, r3, #2
10001594:	68b9      	ldr	r1, [r7, #8]
10001596:	18cb      	adds	r3, r1, r3
10001598:	681b      	ldr	r3, [r3, #0]
1000159a:	1ad3      	subs	r3, r2, r3
1000159c:	613b      	str	r3, [r7, #16]
  	diffCrnt = (diff > 0) ? diff : -diff;
1000159e:	693b      	ldr	r3, [r7, #16]
100015a0:	17da      	asrs	r2, r3, #31
100015a2:	189b      	adds	r3, r3, r2
100015a4:	4053      	eors	r3, r2
100015a6:	617b      	str	r3, [r7, #20]

	if(diffCrnt > maxDiff)
100015a8:	697a      	ldr	r2, [r7, #20]
100015aa:	69bb      	ldr	r3, [r7, #24]
100015ac:	429a      	cmp	r2, r3
100015ae:	d901      	bls.n	100015b4 <arm_compare_fixed_q31+0x48>
	{
		maxDiff = diffCrnt;
100015b0:	697b      	ldr	r3, [r7, #20]
100015b2:	61bb      	str	r3, [r7, #24]
{
  uint32_t i; 
  int32_t diff, diffCrnt = 0;
  uint32_t maxDiff = 0;

  for (i = 0; i < numSamples; i++)
100015b4:	69fb      	ldr	r3, [r7, #28]
100015b6:	3301      	adds	r3, #1
100015b8:	61fb      	str	r3, [r7, #28]
100015ba:	69fa      	ldr	r2, [r7, #28]
100015bc:	687b      	ldr	r3, [r7, #4]
100015be:	429a      	cmp	r2, r3
100015c0:	d3e1      	bcc.n	10001586 <arm_compare_fixed_q31+0x1a>
	{
		maxDiff = diffCrnt;
	}
  }

  return(maxDiff);
100015c2:	69bb      	ldr	r3, [r7, #24]
}
100015c4:	1c18      	adds	r0, r3, #0
100015c6:	46bd      	mov	sp, r7
100015c8:	b008      	add	sp, #32
100015ca:	bd80      	pop	{r7, pc}

100015cc <arm_provide_guard_bits_q31>:
 */

void arm_provide_guard_bits_q31 (q31_t * input_buf, 
								 uint32_t blockSize,
                                 uint32_t guard_bits)
{
100015cc:	b580      	push	{r7, lr}
100015ce:	b086      	sub	sp, #24
100015d0:	af00      	add	r7, sp, #0
100015d2:	60f8      	str	r0, [r7, #12]
100015d4:	60b9      	str	r1, [r7, #8]
100015d6:	607a      	str	r2, [r7, #4]
  uint32_t i;

  for (i = 0; i < blockSize; i++)
100015d8:	2300      	movs	r3, #0
100015da:	617b      	str	r3, [r7, #20]
100015dc:	e010      	b.n	10001600 <arm_provide_guard_bits_q31+0x34>
    {
      input_buf[i] = input_buf[i] >> guard_bits;
100015de:	697b      	ldr	r3, [r7, #20]
100015e0:	009b      	lsls	r3, r3, #2
100015e2:	68fa      	ldr	r2, [r7, #12]
100015e4:	18d3      	adds	r3, r2, r3
100015e6:	697a      	ldr	r2, [r7, #20]
100015e8:	0092      	lsls	r2, r2, #2
100015ea:	68f9      	ldr	r1, [r7, #12]
100015ec:	188a      	adds	r2, r1, r2
100015ee:	6811      	ldr	r1, [r2, #0]
100015f0:	687a      	ldr	r2, [r7, #4]
100015f2:	1c08      	adds	r0, r1, #0
100015f4:	4110      	asrs	r0, r2
100015f6:	1c02      	adds	r2, r0, #0
100015f8:	601a      	str	r2, [r3, #0]
								 uint32_t blockSize,
                                 uint32_t guard_bits)
{
  uint32_t i;

  for (i = 0; i < blockSize; i++)
100015fa:	697b      	ldr	r3, [r7, #20]
100015fc:	3301      	adds	r3, #1
100015fe:	617b      	str	r3, [r7, #20]
10001600:	697a      	ldr	r2, [r7, #20]
10001602:	68bb      	ldr	r3, [r7, #8]
10001604:	429a      	cmp	r2, r3
10001606:	d3ea      	bcc.n	100015de <arm_provide_guard_bits_q31+0x12>
    {
      input_buf[i] = input_buf[i] >> guard_bits;
    }
}
10001608:	46bd      	mov	sp, r7
1000160a:	b006      	add	sp, #24
1000160c:	bd80      	pop	{r7, pc}
1000160e:	46c0      	nop			; (mov r8, r8)

10001610 <arm_provide_guard_bits_q7>:
 */

void arm_provide_guard_bits_q7 (q7_t * input_buf, 
								uint32_t blockSize,
                                uint32_t guard_bits)
{
10001610:	b580      	push	{r7, lr}
10001612:	b086      	sub	sp, #24
10001614:	af00      	add	r7, sp, #0
10001616:	60f8      	str	r0, [r7, #12]
10001618:	60b9      	str	r1, [r7, #8]
1000161a:	607a      	str	r2, [r7, #4]
  uint32_t i;

  for (i = 0; i < blockSize; i++)
1000161c:	2300      	movs	r3, #0
1000161e:	617b      	str	r3, [r7, #20]
10001620:	e010      	b.n	10001644 <arm_provide_guard_bits_q7+0x34>
    {
      input_buf[i] = input_buf[i] >> guard_bits;
10001622:	68fa      	ldr	r2, [r7, #12]
10001624:	697b      	ldr	r3, [r7, #20]
10001626:	18d3      	adds	r3, r2, r3
10001628:	68f9      	ldr	r1, [r7, #12]
1000162a:	697a      	ldr	r2, [r7, #20]
1000162c:	188a      	adds	r2, r1, r2
1000162e:	7812      	ldrb	r2, [r2, #0]
10001630:	b251      	sxtb	r1, r2
10001632:	687a      	ldr	r2, [r7, #4]
10001634:	1c08      	adds	r0, r1, #0
10001636:	4110      	asrs	r0, r2
10001638:	1c02      	adds	r2, r0, #0
1000163a:	b2d2      	uxtb	r2, r2
1000163c:	701a      	strb	r2, [r3, #0]
								uint32_t blockSize,
                                uint32_t guard_bits)
{
  uint32_t i;

  for (i = 0; i < blockSize; i++)
1000163e:	697b      	ldr	r3, [r7, #20]
10001640:	3301      	adds	r3, #1
10001642:	617b      	str	r3, [r7, #20]
10001644:	697a      	ldr	r2, [r7, #20]
10001646:	68bb      	ldr	r3, [r7, #8]
10001648:	429a      	cmp	r2, r3
1000164a:	d3ea      	bcc.n	10001622 <arm_provide_guard_bits_q7+0x12>
    {
      input_buf[i] = input_buf[i] >> guard_bits;
    }
}
1000164c:	46bd      	mov	sp, r7
1000164e:	b006      	add	sp, #24
10001650:	bd80      	pop	{r7, pc}
10001652:	46c0      	nop			; (mov r8, r8)

10001654 <arm_calc_guard_bits>:
 * The function Caluclates the number of guard bits  
 * depending on the numtaps 
 */

uint32_t arm_calc_guard_bits (uint32_t num_adds)
{
10001654:	b580      	push	{r7, lr}
10001656:	b084      	sub	sp, #16
10001658:	af00      	add	r7, sp, #0
1000165a:	6078      	str	r0, [r7, #4]
  uint32_t i = 1, j = 0;
1000165c:	2301      	movs	r3, #1
1000165e:	60fb      	str	r3, [r7, #12]
10001660:	2300      	movs	r3, #0
10001662:	60bb      	str	r3, [r7, #8]

  if (num_adds == 1)
10001664:	687b      	ldr	r3, [r7, #4]
10001666:	2b01      	cmp	r3, #1
10001668:	d107      	bne.n	1000167a <arm_calc_guard_bits+0x26>
    {
      return (0);
1000166a:	2300      	movs	r3, #0
1000166c:	e00a      	b.n	10001684 <arm_calc_guard_bits+0x30>
    }

  while (i < num_adds)
    {
      i = i * 2;
1000166e:	68fb      	ldr	r3, [r7, #12]
10001670:	005b      	lsls	r3, r3, #1
10001672:	60fb      	str	r3, [r7, #12]
      j++;
10001674:	68bb      	ldr	r3, [r7, #8]
10001676:	3301      	adds	r3, #1
10001678:	60bb      	str	r3, [r7, #8]
  if (num_adds == 1)
    {
      return (0);
    }

  while (i < num_adds)
1000167a:	68fa      	ldr	r2, [r7, #12]
1000167c:	687b      	ldr	r3, [r7, #4]
1000167e:	429a      	cmp	r2, r3
10001680:	d3f5      	bcc.n	1000166e <arm_calc_guard_bits+0x1a>
    {
      i = i * 2;
      j++;
    }

  return (j);
10001682:	68bb      	ldr	r3, [r7, #8]
}
10001684:	1c18      	adds	r0, r3, #0
10001686:	46bd      	mov	sp, r7
10001688:	b004      	add	sp, #16
1000168a:	bd80      	pop	{r7, pc}

1000168c <arm_apply_guard_bits>:
 */

void arm_apply_guard_bits (float32_t * pIn, 
						   uint32_t numSamples, 
						   uint32_t guard_bits)
{
1000168c:	b5b0      	push	{r4, r5, r7, lr}
1000168e:	b086      	sub	sp, #24
10001690:	af00      	add	r7, sp, #0
10001692:	60f8      	str	r0, [r7, #12]
10001694:	60b9      	str	r1, [r7, #8]
10001696:	607a      	str	r2, [r7, #4]
  uint32_t i;

  for (i = 0; i < numSamples; i++)
10001698:	2300      	movs	r3, #0
1000169a:	617b      	str	r3, [r7, #20]
1000169c:	e01a      	b.n	100016d4 <arm_apply_guard_bits+0x48>
    {
      pIn[i] = pIn[i] * arm_calc_2pow(guard_bits);
1000169e:	697b      	ldr	r3, [r7, #20]
100016a0:	009b      	lsls	r3, r3, #2
100016a2:	68fa      	ldr	r2, [r7, #12]
100016a4:	18d4      	adds	r4, r2, r3
100016a6:	697b      	ldr	r3, [r7, #20]
100016a8:	009b      	lsls	r3, r3, #2
100016aa:	68fa      	ldr	r2, [r7, #12]
100016ac:	18d3      	adds	r3, r2, r3
100016ae:	681d      	ldr	r5, [r3, #0]
100016b0:	687b      	ldr	r3, [r7, #4]
100016b2:	1c18      	adds	r0, r3, #0
100016b4:	f000 f816 	bl	100016e4 <arm_calc_2pow>
100016b8:	1c03      	adds	r3, r0, #0
100016ba:	1c18      	adds	r0, r3, #0
100016bc:	f001 fe32 	bl	10003324 <__aeabi_ui2f>
100016c0:	1c03      	adds	r3, r0, #0
100016c2:	1c28      	adds	r0, r5, #0
100016c4:	1c19      	adds	r1, r3, #0
100016c6:	f001 fb03 	bl	10002cd0 <__aeabi_fmul>
100016ca:	1c03      	adds	r3, r0, #0
100016cc:	6023      	str	r3, [r4, #0]
						   uint32_t numSamples, 
						   uint32_t guard_bits)
{
  uint32_t i;

  for (i = 0; i < numSamples; i++)
100016ce:	697b      	ldr	r3, [r7, #20]
100016d0:	3301      	adds	r3, #1
100016d2:	617b      	str	r3, [r7, #20]
100016d4:	697a      	ldr	r2, [r7, #20]
100016d6:	68bb      	ldr	r3, [r7, #8]
100016d8:	429a      	cmp	r2, r3
100016da:	d3e0      	bcc.n	1000169e <arm_apply_guard_bits+0x12>
    {
      pIn[i] = pIn[i] * arm_calc_2pow(guard_bits);
    }
}
100016dc:	46bd      	mov	sp, r7
100016de:	b006      	add	sp, #24
100016e0:	bdb0      	pop	{r4, r5, r7, pc}
100016e2:	46c0      	nop			; (mov r8, r8)

100016e4 <arm_calc_2pow>:
 * @brief  Calculates pow(2, numShifts)
 * @param  uint32_t 	number of shifts
 * @return pow(2, numShifts)
 */
uint32_t arm_calc_2pow(uint32_t numShifts)
{
100016e4:	b580      	push	{r7, lr}
100016e6:	b084      	sub	sp, #16
100016e8:	af00      	add	r7, sp, #0
100016ea:	6078      	str	r0, [r7, #4]

  uint32_t i, val = 1;
100016ec:	2301      	movs	r3, #1
100016ee:	60bb      	str	r3, [r7, #8]

  for (i = 0; i < numShifts; i++)
100016f0:	2300      	movs	r3, #0
100016f2:	60fb      	str	r3, [r7, #12]
100016f4:	e005      	b.n	10001702 <arm_calc_2pow+0x1e>
    {
      val = val * 2;
100016f6:	68bb      	ldr	r3, [r7, #8]
100016f8:	005b      	lsls	r3, r3, #1
100016fa:	60bb      	str	r3, [r7, #8]
uint32_t arm_calc_2pow(uint32_t numShifts)
{

  uint32_t i, val = 1;

  for (i = 0; i < numShifts; i++)
100016fc:	68fb      	ldr	r3, [r7, #12]
100016fe:	3301      	adds	r3, #1
10001700:	60fb      	str	r3, [r7, #12]
10001702:	68fa      	ldr	r2, [r7, #12]
10001704:	687b      	ldr	r3, [r7, #4]
10001706:	429a      	cmp	r2, r3
10001708:	d3f5      	bcc.n	100016f6 <arm_calc_2pow+0x12>
    {
      val = val * 2;
    }	

  return(val);
1000170a:	68bb      	ldr	r3, [r7, #8]
}
1000170c:	1c18      	adds	r0, r3, #0
1000170e:	46bd      	mov	sp, r7
10001710:	b004      	add	sp, #16
10001712:	bd80      	pop	{r7, pc}
10001714:	0000      	movs	r0, r0
	...

10001718 <arm_float_to_q14>:
 * The function converts floating point values to fixed point values 
 */

void arm_float_to_q14 (float *pIn, q15_t * pOut, 
                       uint32_t numSamples)
{
10001718:	b5f0      	push	{r4, r5, r6, r7, lr}
1000171a:	4647      	mov	r7, r8
1000171c:	b480      	push	{r7}
1000171e:	b086      	sub	sp, #24
10001720:	af00      	add	r7, sp, #0
10001722:	60f8      	str	r0, [r7, #12]
10001724:	60b9      	str	r1, [r7, #8]
10001726:	607a      	str	r2, [r7, #4]
  uint32_t i;

  for (i = 0; i < numSamples; i++)
10001728:	2300      	movs	r3, #0
1000172a:	617b      	str	r3, [r7, #20]
1000172c:	e05b      	b.n	100017e6 <arm_float_to_q14+0xce>
    {
	  /* 16384.0f corresponds to pow(2, 14) */
      pOut[i] = (q15_t) (pIn[i] * 16384.0f);
1000172e:	697b      	ldr	r3, [r7, #20]
10001730:	005b      	lsls	r3, r3, #1
10001732:	68ba      	ldr	r2, [r7, #8]
10001734:	18d4      	adds	r4, r2, r3
10001736:	697b      	ldr	r3, [r7, #20]
10001738:	009b      	lsls	r3, r3, #2
1000173a:	68fa      	ldr	r2, [r7, #12]
1000173c:	18d3      	adds	r3, r2, r3
1000173e:	681b      	ldr	r3, [r3, #0]
10001740:	1c18      	adds	r0, r3, #0
10001742:	218d      	movs	r1, #141	; 0x8d
10001744:	05c9      	lsls	r1, r1, #23
10001746:	f001 fac3 	bl	10002cd0 <__aeabi_fmul>
1000174a:	1c03      	adds	r3, r0, #0
1000174c:	1c18      	adds	r0, r3, #0
1000174e:	f001 fdc9 	bl	100032e4 <__aeabi_f2iz>
10001752:	1c03      	adds	r3, r0, #0
10001754:	b29b      	uxth	r3, r3
10001756:	8023      	strh	r3, [r4, #0]

      pOut[i] += pIn[i] > 0 ? 0.5 : -0.5;
10001758:	697b      	ldr	r3, [r7, #20]
1000175a:	005b      	lsls	r3, r3, #1
1000175c:	68ba      	ldr	r2, [r7, #8]
1000175e:	18d2      	adds	r2, r2, r3
10001760:	4690      	mov	r8, r2
10001762:	697b      	ldr	r3, [r7, #20]
10001764:	005b      	lsls	r3, r3, #1
10001766:	68ba      	ldr	r2, [r7, #8]
10001768:	18d3      	adds	r3, r2, r3
1000176a:	881b      	ldrh	r3, [r3, #0]
1000176c:	b21b      	sxth	r3, r3
1000176e:	1c18      	adds	r0, r3, #0
10001770:	f003 fbfe 	bl	10004f70 <__aeabi_i2d>
10001774:	1c05      	adds	r5, r0, #0
10001776:	1c0e      	adds	r6, r1, #0
10001778:	697b      	ldr	r3, [r7, #20]
1000177a:	009b      	lsls	r3, r3, #2
1000177c:	68fa      	ldr	r2, [r7, #12]
1000177e:	18d3      	adds	r3, r2, r3
10001780:	681b      	ldr	r3, [r3, #0]
10001782:	1c18      	adds	r0, r3, #0
10001784:	2100      	movs	r1, #0
10001786:	f000 fec7 	bl	10002518 <__aeabi_fcmpgt>
1000178a:	1c03      	adds	r3, r0, #0
1000178c:	2b00      	cmp	r3, #0
1000178e:	d002      	beq.n	10001796 <arm_float_to_q14+0x7e>
10001790:	4c1a      	ldr	r4, [pc, #104]	; (100017fc <arm_float_to_q14+0xe4>)
10001792:	4b19      	ldr	r3, [pc, #100]	; (100017f8 <arm_float_to_q14+0xe0>)
10001794:	e001      	b.n	1000179a <arm_float_to_q14+0x82>
10001796:	4b1a      	ldr	r3, [pc, #104]	; (10001800 <arm_float_to_q14+0xe8>)
10001798:	4c1a      	ldr	r4, [pc, #104]	; (10001804 <arm_float_to_q14+0xec>)
1000179a:	1c28      	adds	r0, r5, #0
1000179c:	1c31      	adds	r1, r6, #0
1000179e:	1c1a      	adds	r2, r3, #0
100017a0:	1c23      	adds	r3, r4, #0
100017a2:	f001 fe13 	bl	100033cc <__aeabi_dadd>
100017a6:	1c03      	adds	r3, r0, #0
100017a8:	1c0c      	adds	r4, r1, #0
100017aa:	1c18      	adds	r0, r3, #0
100017ac:	1c21      	adds	r1, r4, #0
100017ae:	f003 fbab 	bl	10004f08 <__aeabi_d2iz>
100017b2:	1c03      	adds	r3, r0, #0
100017b4:	b29b      	uxth	r3, r3
100017b6:	4642      	mov	r2, r8
100017b8:	8013      	strh	r3, [r2, #0]

      if (pIn[i] == (float) 2.0)
100017ba:	697b      	ldr	r3, [r7, #20]
100017bc:	009b      	lsls	r3, r3, #2
100017be:	68fa      	ldr	r2, [r7, #12]
100017c0:	18d3      	adds	r3, r2, r3
100017c2:	681b      	ldr	r3, [r3, #0]
100017c4:	1c18      	adds	r0, r3, #0
100017c6:	2180      	movs	r1, #128	; 0x80
100017c8:	05c9      	lsls	r1, r1, #23
100017ca:	f000 fe8b 	bl	100024e4 <__aeabi_fcmpeq>
100017ce:	1c03      	adds	r3, r0, #0
100017d0:	2b00      	cmp	r3, #0
100017d2:	d005      	beq.n	100017e0 <arm_float_to_q14+0xc8>
        {
          pOut[i] = 0x7FFF;
100017d4:	697b      	ldr	r3, [r7, #20]
100017d6:	005b      	lsls	r3, r3, #1
100017d8:	68ba      	ldr	r2, [r7, #8]
100017da:	18d3      	adds	r3, r2, r3
100017dc:	4a0a      	ldr	r2, [pc, #40]	; (10001808 <arm_float_to_q14+0xf0>)
100017de:	801a      	strh	r2, [r3, #0]
void arm_float_to_q14 (float *pIn, q15_t * pOut, 
                       uint32_t numSamples)
{
  uint32_t i;

  for (i = 0; i < numSamples; i++)
100017e0:	697b      	ldr	r3, [r7, #20]
100017e2:	3301      	adds	r3, #1
100017e4:	617b      	str	r3, [r7, #20]
100017e6:	697a      	ldr	r2, [r7, #20]
100017e8:	687b      	ldr	r3, [r7, #4]
100017ea:	429a      	cmp	r2, r3
100017ec:	d39f      	bcc.n	1000172e <arm_float_to_q14+0x16>
          pOut[i] = 0x7FFF;
        }

    }

}
100017ee:	46bd      	mov	sp, r7
100017f0:	b006      	add	sp, #24
100017f2:	bc04      	pop	{r2}
100017f4:	4690      	mov	r8, r2
100017f6:	bdf0      	pop	{r4, r5, r6, r7, pc}
100017f8:	00000000 	.word	0x00000000
100017fc:	3fe00000 	.word	0x3fe00000
10001800:	00000000 	.word	0x00000000
10001804:	bfe00000 	.word	0xbfe00000
10001808:	00007fff 	.word	0x00007fff
1000180c:	46c0      	nop			; (mov r8, r8)
1000180e:	46c0      	nop			; (mov r8, r8)

10001810 <arm_float_to_q30>:
 * The function converts floating point values to fixed point values 
 */

void arm_float_to_q30 (float *pIn, q31_t * pOut, 
					   uint32_t numSamples)
{
10001810:	b5f0      	push	{r4, r5, r6, r7, lr}
10001812:	4647      	mov	r7, r8
10001814:	b480      	push	{r7}
10001816:	b086      	sub	sp, #24
10001818:	af00      	add	r7, sp, #0
1000181a:	60f8      	str	r0, [r7, #12]
1000181c:	60b9      	str	r1, [r7, #8]
1000181e:	607a      	str	r2, [r7, #4]
  uint32_t i;

  for (i = 0; i < numSamples; i++)
10001820:	2300      	movs	r3, #0
10001822:	617b      	str	r3, [r7, #20]
10001824:	e058      	b.n	100018d8 <arm_float_to_q30+0xc8>
    {
	  /* 1073741824.0f corresponds to pow(2, 30) */
      pOut[i] = (q31_t) (pIn[i] * 1073741824.0f);
10001826:	697b      	ldr	r3, [r7, #20]
10001828:	009b      	lsls	r3, r3, #2
1000182a:	68ba      	ldr	r2, [r7, #8]
1000182c:	18d4      	adds	r4, r2, r3
1000182e:	697b      	ldr	r3, [r7, #20]
10001830:	009b      	lsls	r3, r3, #2
10001832:	68fa      	ldr	r2, [r7, #12]
10001834:	18d3      	adds	r3, r2, r3
10001836:	681b      	ldr	r3, [r3, #0]
10001838:	1c18      	adds	r0, r3, #0
1000183a:	219d      	movs	r1, #157	; 0x9d
1000183c:	05c9      	lsls	r1, r1, #23
1000183e:	f001 fa47 	bl	10002cd0 <__aeabi_fmul>
10001842:	1c03      	adds	r3, r0, #0
10001844:	1c18      	adds	r0, r3, #0
10001846:	f001 fd4d 	bl	100032e4 <__aeabi_f2iz>
1000184a:	1c03      	adds	r3, r0, #0
1000184c:	6023      	str	r3, [r4, #0]

      pOut[i] += pIn[i] > 0 ? 0.5 : -0.5;
1000184e:	697b      	ldr	r3, [r7, #20]
10001850:	009b      	lsls	r3, r3, #2
10001852:	68ba      	ldr	r2, [r7, #8]
10001854:	18d2      	adds	r2, r2, r3
10001856:	4690      	mov	r8, r2
10001858:	697b      	ldr	r3, [r7, #20]
1000185a:	009b      	lsls	r3, r3, #2
1000185c:	68ba      	ldr	r2, [r7, #8]
1000185e:	18d3      	adds	r3, r2, r3
10001860:	681b      	ldr	r3, [r3, #0]
10001862:	1c18      	adds	r0, r3, #0
10001864:	f003 fb84 	bl	10004f70 <__aeabi_i2d>
10001868:	1c05      	adds	r5, r0, #0
1000186a:	1c0e      	adds	r6, r1, #0
1000186c:	697b      	ldr	r3, [r7, #20]
1000186e:	009b      	lsls	r3, r3, #2
10001870:	68fa      	ldr	r2, [r7, #12]
10001872:	18d3      	adds	r3, r2, r3
10001874:	681b      	ldr	r3, [r3, #0]
10001876:	1c18      	adds	r0, r3, #0
10001878:	2100      	movs	r1, #0
1000187a:	f000 fe4d 	bl	10002518 <__aeabi_fcmpgt>
1000187e:	1c03      	adds	r3, r0, #0
10001880:	2b00      	cmp	r3, #0
10001882:	d002      	beq.n	1000188a <arm_float_to_q30+0x7a>
10001884:	4c1b      	ldr	r4, [pc, #108]	; (100018f4 <arm_float_to_q30+0xe4>)
10001886:	4b1a      	ldr	r3, [pc, #104]	; (100018f0 <arm_float_to_q30+0xe0>)
10001888:	e001      	b.n	1000188e <arm_float_to_q30+0x7e>
1000188a:	4b1b      	ldr	r3, [pc, #108]	; (100018f8 <arm_float_to_q30+0xe8>)
1000188c:	4c1b      	ldr	r4, [pc, #108]	; (100018fc <arm_float_to_q30+0xec>)
1000188e:	1c28      	adds	r0, r5, #0
10001890:	1c31      	adds	r1, r6, #0
10001892:	1c1a      	adds	r2, r3, #0
10001894:	1c23      	adds	r3, r4, #0
10001896:	f001 fd99 	bl	100033cc <__aeabi_dadd>
1000189a:	1c03      	adds	r3, r0, #0
1000189c:	1c0c      	adds	r4, r1, #0
1000189e:	1c18      	adds	r0, r3, #0
100018a0:	1c21      	adds	r1, r4, #0
100018a2:	f003 fb31 	bl	10004f08 <__aeabi_d2iz>
100018a6:	1c03      	adds	r3, r0, #0
100018a8:	4642      	mov	r2, r8
100018aa:	6013      	str	r3, [r2, #0]

      if (pIn[i] == (float) 2.0)
100018ac:	697b      	ldr	r3, [r7, #20]
100018ae:	009b      	lsls	r3, r3, #2
100018b0:	68fa      	ldr	r2, [r7, #12]
100018b2:	18d3      	adds	r3, r2, r3
100018b4:	681b      	ldr	r3, [r3, #0]
100018b6:	1c18      	adds	r0, r3, #0
100018b8:	2180      	movs	r1, #128	; 0x80
100018ba:	05c9      	lsls	r1, r1, #23
100018bc:	f000 fe12 	bl	100024e4 <__aeabi_fcmpeq>
100018c0:	1c03      	adds	r3, r0, #0
100018c2:	2b00      	cmp	r3, #0
100018c4:	d005      	beq.n	100018d2 <arm_float_to_q30+0xc2>
        {
          pOut[i] = 0x7FFFFFFF;
100018c6:	697b      	ldr	r3, [r7, #20]
100018c8:	009b      	lsls	r3, r3, #2
100018ca:	68ba      	ldr	r2, [r7, #8]
100018cc:	18d3      	adds	r3, r2, r3
100018ce:	4a0c      	ldr	r2, [pc, #48]	; (10001900 <arm_float_to_q30+0xf0>)
100018d0:	601a      	str	r2, [r3, #0]
void arm_float_to_q30 (float *pIn, q31_t * pOut, 
					   uint32_t numSamples)
{
  uint32_t i;

  for (i = 0; i < numSamples; i++)
100018d2:	697b      	ldr	r3, [r7, #20]
100018d4:	3301      	adds	r3, #1
100018d6:	617b      	str	r3, [r7, #20]
100018d8:	697a      	ldr	r2, [r7, #20]
100018da:	687b      	ldr	r3, [r7, #4]
100018dc:	429a      	cmp	r2, r3
100018de:	d3a2      	bcc.n	10001826 <arm_float_to_q30+0x16>
      if (pIn[i] == (float) 2.0)
        {
          pOut[i] = 0x7FFFFFFF;
        }
    }
}
100018e0:	46bd      	mov	sp, r7
100018e2:	b006      	add	sp, #24
100018e4:	bc04      	pop	{r2}
100018e6:	4690      	mov	r8, r2
100018e8:	bdf0      	pop	{r4, r5, r6, r7, pc}
100018ea:	46c0      	nop			; (mov r8, r8)
100018ec:	46c0      	nop			; (mov r8, r8)
100018ee:	46c0      	nop			; (mov r8, r8)
100018f0:	00000000 	.word	0x00000000
100018f4:	3fe00000 	.word	0x3fe00000
100018f8:	00000000 	.word	0x00000000
100018fc:	bfe00000 	.word	0xbfe00000
10001900:	7fffffff 	.word	0x7fffffff
10001904:	46c0      	nop			; (mov r8, r8)
10001906:	46c0      	nop			; (mov r8, r8)

10001908 <arm_float_to_q29>:
 * The function converts floating point values to fixed point values 
 */

void arm_float_to_q29 (float *pIn, q31_t * pOut, 
					   uint32_t numSamples)
{
10001908:	b5f0      	push	{r4, r5, r6, r7, lr}
1000190a:	4647      	mov	r7, r8
1000190c:	b480      	push	{r7}
1000190e:	b086      	sub	sp, #24
10001910:	af00      	add	r7, sp, #0
10001912:	60f8      	str	r0, [r7, #12]
10001914:	60b9      	str	r1, [r7, #8]
10001916:	607a      	str	r2, [r7, #4]
  uint32_t i;

  for (i = 0; i < numSamples; i++)
10001918:	2300      	movs	r3, #0
1000191a:	617b      	str	r3, [r7, #20]
1000191c:	e058      	b.n	100019d0 <arm_float_to_q29+0xc8>
    {
	  /* 1073741824.0f corresponds to pow(2, 30) */
      pOut[i] = (q31_t) (pIn[i] * 536870912.0f);
1000191e:	697b      	ldr	r3, [r7, #20]
10001920:	009b      	lsls	r3, r3, #2
10001922:	68ba      	ldr	r2, [r7, #8]
10001924:	18d4      	adds	r4, r2, r3
10001926:	697b      	ldr	r3, [r7, #20]
10001928:	009b      	lsls	r3, r3, #2
1000192a:	68fa      	ldr	r2, [r7, #12]
1000192c:	18d3      	adds	r3, r2, r3
1000192e:	681b      	ldr	r3, [r3, #0]
10001930:	1c18      	adds	r0, r3, #0
10001932:	219c      	movs	r1, #156	; 0x9c
10001934:	05c9      	lsls	r1, r1, #23
10001936:	f001 f9cb 	bl	10002cd0 <__aeabi_fmul>
1000193a:	1c03      	adds	r3, r0, #0
1000193c:	1c18      	adds	r0, r3, #0
1000193e:	f001 fcd1 	bl	100032e4 <__aeabi_f2iz>
10001942:	1c03      	adds	r3, r0, #0
10001944:	6023      	str	r3, [r4, #0]

      pOut[i] += pIn[i] > 0 ? 0.5 : -0.5;
10001946:	697b      	ldr	r3, [r7, #20]
10001948:	009b      	lsls	r3, r3, #2
1000194a:	68ba      	ldr	r2, [r7, #8]
1000194c:	18d2      	adds	r2, r2, r3
1000194e:	4690      	mov	r8, r2
10001950:	697b      	ldr	r3, [r7, #20]
10001952:	009b      	lsls	r3, r3, #2
10001954:	68ba      	ldr	r2, [r7, #8]
10001956:	18d3      	adds	r3, r2, r3
10001958:	681b      	ldr	r3, [r3, #0]
1000195a:	1c18      	adds	r0, r3, #0
1000195c:	f003 fb08 	bl	10004f70 <__aeabi_i2d>
10001960:	1c05      	adds	r5, r0, #0
10001962:	1c0e      	adds	r6, r1, #0
10001964:	697b      	ldr	r3, [r7, #20]
10001966:	009b      	lsls	r3, r3, #2
10001968:	68fa      	ldr	r2, [r7, #12]
1000196a:	18d3      	adds	r3, r2, r3
1000196c:	681b      	ldr	r3, [r3, #0]
1000196e:	1c18      	adds	r0, r3, #0
10001970:	2100      	movs	r1, #0
10001972:	f000 fdd1 	bl	10002518 <__aeabi_fcmpgt>
10001976:	1c03      	adds	r3, r0, #0
10001978:	2b00      	cmp	r3, #0
1000197a:	d002      	beq.n	10001982 <arm_float_to_q29+0x7a>
1000197c:	4c1b      	ldr	r4, [pc, #108]	; (100019ec <arm_float_to_q29+0xe4>)
1000197e:	4b1a      	ldr	r3, [pc, #104]	; (100019e8 <arm_float_to_q29+0xe0>)
10001980:	e001      	b.n	10001986 <arm_float_to_q29+0x7e>
10001982:	4b1b      	ldr	r3, [pc, #108]	; (100019f0 <arm_float_to_q29+0xe8>)
10001984:	4c1b      	ldr	r4, [pc, #108]	; (100019f4 <arm_float_to_q29+0xec>)
10001986:	1c28      	adds	r0, r5, #0
10001988:	1c31      	adds	r1, r6, #0
1000198a:	1c1a      	adds	r2, r3, #0
1000198c:	1c23      	adds	r3, r4, #0
1000198e:	f001 fd1d 	bl	100033cc <__aeabi_dadd>
10001992:	1c03      	adds	r3, r0, #0
10001994:	1c0c      	adds	r4, r1, #0
10001996:	1c18      	adds	r0, r3, #0
10001998:	1c21      	adds	r1, r4, #0
1000199a:	f003 fab5 	bl	10004f08 <__aeabi_d2iz>
1000199e:	1c03      	adds	r3, r0, #0
100019a0:	4642      	mov	r2, r8
100019a2:	6013      	str	r3, [r2, #0]

      if (pIn[i] == (float) 4.0)
100019a4:	697b      	ldr	r3, [r7, #20]
100019a6:	009b      	lsls	r3, r3, #2
100019a8:	68fa      	ldr	r2, [r7, #12]
100019aa:	18d3      	adds	r3, r2, r3
100019ac:	681b      	ldr	r3, [r3, #0]
100019ae:	1c18      	adds	r0, r3, #0
100019b0:	2181      	movs	r1, #129	; 0x81
100019b2:	05c9      	lsls	r1, r1, #23
100019b4:	f000 fd96 	bl	100024e4 <__aeabi_fcmpeq>
100019b8:	1c03      	adds	r3, r0, #0
100019ba:	2b00      	cmp	r3, #0
100019bc:	d005      	beq.n	100019ca <arm_float_to_q29+0xc2>
        {
          pOut[i] = 0x7FFFFFFF;
100019be:	697b      	ldr	r3, [r7, #20]
100019c0:	009b      	lsls	r3, r3, #2
100019c2:	68ba      	ldr	r2, [r7, #8]
100019c4:	18d3      	adds	r3, r2, r3
100019c6:	4a0c      	ldr	r2, [pc, #48]	; (100019f8 <arm_float_to_q29+0xf0>)
100019c8:	601a      	str	r2, [r3, #0]
void arm_float_to_q29 (float *pIn, q31_t * pOut, 
					   uint32_t numSamples)
{
  uint32_t i;

  for (i = 0; i < numSamples; i++)
100019ca:	697b      	ldr	r3, [r7, #20]
100019cc:	3301      	adds	r3, #1
100019ce:	617b      	str	r3, [r7, #20]
100019d0:	697a      	ldr	r2, [r7, #20]
100019d2:	687b      	ldr	r3, [r7, #4]
100019d4:	429a      	cmp	r2, r3
100019d6:	d3a2      	bcc.n	1000191e <arm_float_to_q29+0x16>
      if (pIn[i] == (float) 4.0)
        {
          pOut[i] = 0x7FFFFFFF;
        }
    }
}
100019d8:	46bd      	mov	sp, r7
100019da:	b006      	add	sp, #24
100019dc:	bc04      	pop	{r2}
100019de:	4690      	mov	r8, r2
100019e0:	bdf0      	pop	{r4, r5, r6, r7, pc}
100019e2:	46c0      	nop			; (mov r8, r8)
100019e4:	46c0      	nop			; (mov r8, r8)
100019e6:	46c0      	nop			; (mov r8, r8)
100019e8:	00000000 	.word	0x00000000
100019ec:	3fe00000 	.word	0x3fe00000
100019f0:	00000000 	.word	0x00000000
100019f4:	bfe00000 	.word	0xbfe00000
100019f8:	7fffffff 	.word	0x7fffffff
100019fc:	46c0      	nop			; (mov r8, r8)
100019fe:	46c0      	nop			; (mov r8, r8)

10001a00 <arm_float_to_q28>:
 * The function converts floating point values to fixed point values 
 */

void arm_float_to_q28 (float *pIn, q31_t * pOut, 
                       uint32_t numSamples)
{
10001a00:	b5f0      	push	{r4, r5, r6, r7, lr}
10001a02:	4647      	mov	r7, r8
10001a04:	b480      	push	{r7}
10001a06:	b086      	sub	sp, #24
10001a08:	af00      	add	r7, sp, #0
10001a0a:	60f8      	str	r0, [r7, #12]
10001a0c:	60b9      	str	r1, [r7, #8]
10001a0e:	607a      	str	r2, [r7, #4]
  uint32_t i;

  for (i = 0; i < numSamples; i++)
10001a10:	2300      	movs	r3, #0
10001a12:	617b      	str	r3, [r7, #20]
10001a14:	e058      	b.n	10001ac8 <arm_float_to_q28+0xc8>
    {
	/* 268435456.0f corresponds to pow(2, 28) */
      pOut[i] = (q31_t) (pIn[i] * 268435456.0f);
10001a16:	697b      	ldr	r3, [r7, #20]
10001a18:	009b      	lsls	r3, r3, #2
10001a1a:	68ba      	ldr	r2, [r7, #8]
10001a1c:	18d4      	adds	r4, r2, r3
10001a1e:	697b      	ldr	r3, [r7, #20]
10001a20:	009b      	lsls	r3, r3, #2
10001a22:	68fa      	ldr	r2, [r7, #12]
10001a24:	18d3      	adds	r3, r2, r3
10001a26:	681b      	ldr	r3, [r3, #0]
10001a28:	1c18      	adds	r0, r3, #0
10001a2a:	219b      	movs	r1, #155	; 0x9b
10001a2c:	05c9      	lsls	r1, r1, #23
10001a2e:	f001 f94f 	bl	10002cd0 <__aeabi_fmul>
10001a32:	1c03      	adds	r3, r0, #0
10001a34:	1c18      	adds	r0, r3, #0
10001a36:	f001 fc55 	bl	100032e4 <__aeabi_f2iz>
10001a3a:	1c03      	adds	r3, r0, #0
10001a3c:	6023      	str	r3, [r4, #0]

      pOut[i] += pIn[i] > 0 ? 0.5 : -0.5;
10001a3e:	697b      	ldr	r3, [r7, #20]
10001a40:	009b      	lsls	r3, r3, #2
10001a42:	68ba      	ldr	r2, [r7, #8]
10001a44:	18d2      	adds	r2, r2, r3
10001a46:	4690      	mov	r8, r2
10001a48:	697b      	ldr	r3, [r7, #20]
10001a4a:	009b      	lsls	r3, r3, #2
10001a4c:	68ba      	ldr	r2, [r7, #8]
10001a4e:	18d3      	adds	r3, r2, r3
10001a50:	681b      	ldr	r3, [r3, #0]
10001a52:	1c18      	adds	r0, r3, #0
10001a54:	f003 fa8c 	bl	10004f70 <__aeabi_i2d>
10001a58:	1c05      	adds	r5, r0, #0
10001a5a:	1c0e      	adds	r6, r1, #0
10001a5c:	697b      	ldr	r3, [r7, #20]
10001a5e:	009b      	lsls	r3, r3, #2
10001a60:	68fa      	ldr	r2, [r7, #12]
10001a62:	18d3      	adds	r3, r2, r3
10001a64:	681b      	ldr	r3, [r3, #0]
10001a66:	1c18      	adds	r0, r3, #0
10001a68:	2100      	movs	r1, #0
10001a6a:	f000 fd55 	bl	10002518 <__aeabi_fcmpgt>
10001a6e:	1c03      	adds	r3, r0, #0
10001a70:	2b00      	cmp	r3, #0
10001a72:	d002      	beq.n	10001a7a <arm_float_to_q28+0x7a>
10001a74:	4c1b      	ldr	r4, [pc, #108]	; (10001ae4 <arm_float_to_q28+0xe4>)
10001a76:	4b1a      	ldr	r3, [pc, #104]	; (10001ae0 <arm_float_to_q28+0xe0>)
10001a78:	e001      	b.n	10001a7e <arm_float_to_q28+0x7e>
10001a7a:	4b1b      	ldr	r3, [pc, #108]	; (10001ae8 <arm_float_to_q28+0xe8>)
10001a7c:	4c1b      	ldr	r4, [pc, #108]	; (10001aec <arm_float_to_q28+0xec>)
10001a7e:	1c28      	adds	r0, r5, #0
10001a80:	1c31      	adds	r1, r6, #0
10001a82:	1c1a      	adds	r2, r3, #0
10001a84:	1c23      	adds	r3, r4, #0
10001a86:	f001 fca1 	bl	100033cc <__aeabi_dadd>
10001a8a:	1c03      	adds	r3, r0, #0
10001a8c:	1c0c      	adds	r4, r1, #0
10001a8e:	1c18      	adds	r0, r3, #0
10001a90:	1c21      	adds	r1, r4, #0
10001a92:	f003 fa39 	bl	10004f08 <__aeabi_d2iz>
10001a96:	1c03      	adds	r3, r0, #0
10001a98:	4642      	mov	r2, r8
10001a9a:	6013      	str	r3, [r2, #0]

      if (pIn[i] == (float) 8.0)
10001a9c:	697b      	ldr	r3, [r7, #20]
10001a9e:	009b      	lsls	r3, r3, #2
10001aa0:	68fa      	ldr	r2, [r7, #12]
10001aa2:	18d3      	adds	r3, r2, r3
10001aa4:	681b      	ldr	r3, [r3, #0]
10001aa6:	1c18      	adds	r0, r3, #0
10001aa8:	2182      	movs	r1, #130	; 0x82
10001aaa:	05c9      	lsls	r1, r1, #23
10001aac:	f000 fd1a 	bl	100024e4 <__aeabi_fcmpeq>
10001ab0:	1c03      	adds	r3, r0, #0
10001ab2:	2b00      	cmp	r3, #0
10001ab4:	d005      	beq.n	10001ac2 <arm_float_to_q28+0xc2>
        {
          pOut[i] = 0x7FFFFFFF;
10001ab6:	697b      	ldr	r3, [r7, #20]
10001ab8:	009b      	lsls	r3, r3, #2
10001aba:	68ba      	ldr	r2, [r7, #8]
10001abc:	18d3      	adds	r3, r2, r3
10001abe:	4a0c      	ldr	r2, [pc, #48]	; (10001af0 <arm_float_to_q28+0xf0>)
10001ac0:	601a      	str	r2, [r3, #0]
void arm_float_to_q28 (float *pIn, q31_t * pOut, 
                       uint32_t numSamples)
{
  uint32_t i;

  for (i = 0; i < numSamples; i++)
10001ac2:	697b      	ldr	r3, [r7, #20]
10001ac4:	3301      	adds	r3, #1
10001ac6:	617b      	str	r3, [r7, #20]
10001ac8:	697a      	ldr	r2, [r7, #20]
10001aca:	687b      	ldr	r3, [r7, #4]
10001acc:	429a      	cmp	r2, r3
10001ace:	d3a2      	bcc.n	10001a16 <arm_float_to_q28+0x16>
      if (pIn[i] == (float) 8.0)
        {
          pOut[i] = 0x7FFFFFFF;
        }
    }
}
10001ad0:	46bd      	mov	sp, r7
10001ad2:	b006      	add	sp, #24
10001ad4:	bc04      	pop	{r2}
10001ad6:	4690      	mov	r8, r2
10001ad8:	bdf0      	pop	{r4, r5, r6, r7, pc}
10001ada:	46c0      	nop			; (mov r8, r8)
10001adc:	46c0      	nop			; (mov r8, r8)
10001ade:	46c0      	nop			; (mov r8, r8)
10001ae0:	00000000 	.word	0x00000000
10001ae4:	3fe00000 	.word	0x3fe00000
10001ae8:	00000000 	.word	0x00000000
10001aec:	bfe00000 	.word	0xbfe00000
10001af0:	7fffffff 	.word	0x7fffffff
10001af4:	46c0      	nop			; (mov r8, r8)
10001af6:	46c0      	nop			; (mov r8, r8)

10001af8 <arm_clip_f32>:
 * @return none
 * The function converts floating point values to fixed point values 
 */

void arm_clip_f32 (float *pIn, uint32_t numSamples)
{
10001af8:	b580      	push	{r7, lr}
10001afa:	b084      	sub	sp, #16
10001afc:	af00      	add	r7, sp, #0
10001afe:	6078      	str	r0, [r7, #4]
10001b00:	6039      	str	r1, [r7, #0]
  uint32_t i;

  for (i = 0; i < numSamples; i++)
10001b02:	2300      	movs	r3, #0
10001b04:	60fb      	str	r3, [r7, #12]
10001b06:	e029      	b.n	10001b5c <arm_clip_f32+0x64>
    {
      if(pIn[i] > 1.0f)
10001b08:	68fb      	ldr	r3, [r7, #12]
10001b0a:	009b      	lsls	r3, r3, #2
10001b0c:	687a      	ldr	r2, [r7, #4]
10001b0e:	18d3      	adds	r3, r2, r3
10001b10:	681b      	ldr	r3, [r3, #0]
10001b12:	1c18      	adds	r0, r3, #0
10001b14:	21fe      	movs	r1, #254	; 0xfe
10001b16:	0589      	lsls	r1, r1, #22
10001b18:	f000 fcfe 	bl	10002518 <__aeabi_fcmpgt>
10001b1c:	1c03      	adds	r3, r0, #0
10001b1e:	2b00      	cmp	r3, #0
10001b20:	d007      	beq.n	10001b32 <arm_clip_f32+0x3a>
	  {
	    pIn[i] = 1.0;
10001b22:	68fb      	ldr	r3, [r7, #12]
10001b24:	009b      	lsls	r3, r3, #2
10001b26:	687a      	ldr	r2, [r7, #4]
10001b28:	18d3      	adds	r3, r2, r3
10001b2a:	22fe      	movs	r2, #254	; 0xfe
10001b2c:	0592      	lsls	r2, r2, #22
10001b2e:	601a      	str	r2, [r3, #0]
10001b30:	e011      	b.n	10001b56 <arm_clip_f32+0x5e>
	  }
	  else if( pIn[i] < -1.0f)
10001b32:	68fb      	ldr	r3, [r7, #12]
10001b34:	009b      	lsls	r3, r3, #2
10001b36:	687a      	ldr	r2, [r7, #4]
10001b38:	18d3      	adds	r3, r2, r3
10001b3a:	681b      	ldr	r3, [r3, #0]
10001b3c:	1c18      	adds	r0, r3, #0
10001b3e:	490b      	ldr	r1, [pc, #44]	; (10001b6c <arm_clip_f32+0x74>)
10001b40:	f000 fcd6 	bl	100024f0 <__aeabi_fcmplt>
10001b44:	1c03      	adds	r3, r0, #0
10001b46:	2b00      	cmp	r3, #0
10001b48:	d005      	beq.n	10001b56 <arm_clip_f32+0x5e>
	  {
	    pIn[i] = -1.0;
10001b4a:	68fb      	ldr	r3, [r7, #12]
10001b4c:	009b      	lsls	r3, r3, #2
10001b4e:	687a      	ldr	r2, [r7, #4]
10001b50:	18d3      	adds	r3, r2, r3
10001b52:	4a06      	ldr	r2, [pc, #24]	; (10001b6c <arm_clip_f32+0x74>)
10001b54:	601a      	str	r2, [r3, #0]

void arm_clip_f32 (float *pIn, uint32_t numSamples)
{
  uint32_t i;

  for (i = 0; i < numSamples; i++)
10001b56:	68fb      	ldr	r3, [r7, #12]
10001b58:	3301      	adds	r3, #1
10001b5a:	60fb      	str	r3, [r7, #12]
10001b5c:	68fa      	ldr	r2, [r7, #12]
10001b5e:	683b      	ldr	r3, [r7, #0]
10001b60:	429a      	cmp	r2, r3
10001b62:	d3d1      	bcc.n	10001b08 <arm_clip_f32+0x10>
	  {
	    pIn[i] = -1.0;
	  }
	       
    }
}
10001b64:	46bd      	mov	sp, r7
10001b66:	b004      	add	sp, #16
10001b68:	bd80      	pop	{r7, pc}
10001b6a:	46c0      	nop			; (mov r8, r8)
10001b6c:	bf800000 	.word	0xbf800000

10001b70 <arm_fir_f32>:
void arm_fir_f32(
const arm_fir_instance_f32 * S,
float32_t * pSrc,
float32_t * pDst,
uint32_t blockSize)
{
10001b70:	b5f0      	push	{r4, r5, r6, r7, lr}
10001b72:	465f      	mov	r7, fp
10001b74:	4656      	mov	r6, sl
10001b76:	464d      	mov	r5, r9
10001b78:	4644      	mov	r4, r8
10001b7a:	b4f0      	push	{r4, r5, r6, r7}
10001b7c:	b089      	sub	sp, #36	; 0x24
10001b7e:	9307      	str	r3, [sp, #28]
   float32_t *pState = S->pState;                 /* State pointer */
10001b80:	6847      	ldr	r7, [r0, #4]
   float32_t *pCoeffs = S->pCoeffs;               /* Coefficient pointer */
10001b82:	6883      	ldr	r3, [r0, #8]
void arm_fir_f32(
const arm_fir_instance_f32 * S,
float32_t * pSrc,
float32_t * pDst,
uint32_t blockSize)
{
10001b84:	9201      	str	r2, [sp, #4]
   float32_t *pState = S->pState;                 /* State pointer */
10001b86:	9705      	str	r7, [sp, #20]
   float32_t *pCoeffs = S->pCoeffs;               /* Coefficient pointer */
10001b88:	9304      	str	r3, [sp, #16]
   float32_t *pStateCurnt;                        /* Points to the current sample of the state */
   float32_t *px, *pb;                            /* Temporary pointers for state and coefficient buffers */
   uint32_t numTaps = S->numTaps;                 /* Number of filter coefficients in the filter */
10001b8a:	8800      	ldrh	r0, [r0, #0]
   pStateCurnt = &(S->pState[(numTaps - 1u)]);

   /* Initialize blkCnt with blockSize */
   blkCnt = blockSize;

   while(blkCnt > 0u)
10001b8c:	9e07      	ldr	r6, [sp, #28]
{
   float32_t *pState = S->pState;                 /* State pointer */
   float32_t *pCoeffs = S->pCoeffs;               /* Coefficient pointer */
   float32_t *pStateCurnt;                        /* Points to the current sample of the state */
   float32_t *px, *pb;                            /* Temporary pointers for state and coefficient buffers */
   uint32_t numTaps = S->numTaps;                 /* Number of filter coefficients in the filter */
10001b8e:	9003      	str	r0, [sp, #12]

   float32_t acc;

   /* S->pState points to state array which contains previous frame (numTaps - 1) samples */
   /* pStateCurnt points to the location where the new input data should be written */
   pStateCurnt = &(S->pState[(numTaps - 1u)]);
10001b90:	3801      	subs	r0, #1
10001b92:	0084      	lsls	r4, r0, #2
10001b94:	193d      	adds	r5, r7, r4
10001b96:	9006      	str	r0, [sp, #24]
10001b98:	9500      	str	r5, [sp, #0]

   /* Initialize blkCnt with blockSize */
   blkCnt = blockSize;

   while(blkCnt > 0u)
10001b9a:	2e00      	cmp	r6, #0
10001b9c:	d058      	beq.n	10001c50 <arm_fir_f32+0xe0>
10001b9e:	9102      	str	r1, [sp, #8]
10001ba0:	46b3      	mov	fp, r6
const arm_fir_instance_f32 * S,
float32_t * pSrc,
float32_t * pDst,
uint32_t blockSize)
{
   float32_t *pState = S->pState;                 /* State pointer */
10001ba2:	46ba      	mov	sl, r7
   blkCnt = blockSize;

   while(blkCnt > 0u)
   {
      /* Copy one sample at a time into state buffer */
      *pStateCurnt++ = *pSrc++;
10001ba4:	9902      	ldr	r1, [sp, #8]
10001ba6:	9a00      	ldr	r2, [sp, #0]
10001ba8:	c980      	ldmia	r1!, {r7}

      /* Perform the multiply-accumulates */
      do
      {
         /* acc =  b[numTaps-1] * x[n-numTaps-1] + b[numTaps-2] * x[n-numTaps-2] + b[numTaps-3] * x[n-numTaps-3] +...+ b[0] * x[0] */
         acc += *px++ * *pb++;
10001baa:	9c04      	ldr	r4, [sp, #16]
   blkCnt = blockSize;

   while(blkCnt > 0u)
   {
      /* Copy one sample at a time into state buffer */
      *pStateCurnt++ = *pSrc++;
10001bac:	c280      	stmia	r2!, {r7}

      /* Perform the multiply-accumulates */
      do
      {
         /* acc =  b[numTaps-1] * x[n-numTaps-1] + b[numTaps-2] * x[n-numTaps-2] + b[numTaps-3] * x[n-numTaps-3] +...+ b[0] * x[0] */
         acc += *px++ * *pb++;
10001bae:	4655      	mov	r5, sl
   blkCnt = blockSize;

   while(blkCnt > 0u)
   {
      /* Copy one sample at a time into state buffer */
      *pStateCurnt++ = *pSrc++;
10001bb0:	9102      	str	r1, [sp, #8]

      /* Perform the multiply-accumulates */
      do
      {
         /* acc =  b[numTaps-1] * x[n-numTaps-1] + b[numTaps-2] * x[n-numTaps-2] + b[numTaps-3] * x[n-numTaps-3] +...+ b[0] * x[0] */
         acc += *px++ * *pb++;
10001bb2:	cd01      	ldmia	r5!, {r0}
10001bb4:	cc02      	ldmia	r4!, {r1}
   blkCnt = blockSize;

   while(blkCnt > 0u)
   {
      /* Copy one sample at a time into state buffer */
      *pStateCurnt++ = *pSrc++;
10001bb6:	9200      	str	r2, [sp, #0]

      /* Perform the multiply-accumulates */
      do
      {
         /* acc =  b[numTaps-1] * x[n-numTaps-1] + b[numTaps-2] * x[n-numTaps-2] + b[numTaps-3] * x[n-numTaps-3] +...+ b[0] * x[0] */
         acc += *px++ * *pb++;
10001bb8:	f001 f88a 	bl	10002cd0 <__aeabi_fmul>
10001bbc:	1c01      	adds	r1, r0, #0
10001bbe:	2000      	movs	r0, #0
10001bc0:	f000 fcbe 	bl	10002540 <__aeabi_fadd>
10001bc4:	9e03      	ldr	r6, [sp, #12]
10001bc6:	2701      	movs	r7, #1
10001bc8:	3e01      	subs	r6, #1
10001bca:	4037      	ands	r7, r6
10001bcc:	4681      	mov	r9, r0
         i--;

      } while(i > 0u);
10001bce:	2e00      	cmp	r6, #0
10001bd0:	d02e      	beq.n	10001c30 <arm_fir_f32+0xc0>
10001bd2:	2f00      	cmp	r7, #0
10001bd4:	d00e      	beq.n	10001bf4 <arm_fir_f32+0x84>

      /* Perform the multiply-accumulates */
      do
      {
         /* acc =  b[numTaps-1] * x[n-numTaps-1] + b[numTaps-2] * x[n-numTaps-2] + b[numTaps-3] * x[n-numTaps-3] +...+ b[0] * x[0] */
         acc += *px++ * *pb++;
10001bd6:	9b04      	ldr	r3, [sp, #16]
10001bd8:	cd01      	ldmia	r5!, {r0}
10001bda:	6859      	ldr	r1, [r3, #4]
10001bdc:	f001 f878 	bl	10002cd0 <__aeabi_fmul>
10001be0:	1c01      	adds	r1, r0, #0
10001be2:	4648      	mov	r0, r9
10001be4:	f000 fcac 	bl	10002540 <__aeabi_fadd>
         i--;
10001be8:	9e03      	ldr	r6, [sp, #12]

      /* Perform the multiply-accumulates */
      do
      {
         /* acc =  b[numTaps-1] * x[n-numTaps-1] + b[numTaps-2] * x[n-numTaps-2] + b[numTaps-3] * x[n-numTaps-3] +...+ b[0] * x[0] */
         acc += *px++ * *pb++;
10001bea:	4681      	mov	r9, r0
         i--;
10001bec:	3e02      	subs	r6, #2

      /* Perform the multiply-accumulates */
      do
      {
         /* acc =  b[numTaps-1] * x[n-numTaps-1] + b[numTaps-2] * x[n-numTaps-2] + b[numTaps-3] * x[n-numTaps-3] +...+ b[0] * x[0] */
         acc += *px++ * *pb++;
10001bee:	3404      	adds	r4, #4
         i--;

      } while(i > 0u);
10001bf0:	2e00      	cmp	r6, #0
10001bf2:	d01d      	beq.n	10001c30 <arm_fir_f32+0xc0>
10001bf4:	46b0      	mov	r8, r6
10001bf6:	1c26      	adds	r6, r4, #0

      /* Perform the multiply-accumulates */
      do
      {
         /* acc =  b[numTaps-1] * x[n-numTaps-1] + b[numTaps-2] * x[n-numTaps-2] + b[numTaps-3] * x[n-numTaps-3] +...+ b[0] * x[0] */
         acc += *px++ * *pb++;
10001bf8:	1c2c      	adds	r4, r5, #0
10001bfa:	1c37      	adds	r7, r6, #0
10001bfc:	cf02      	ldmia	r7!, {r1}
10001bfe:	cc01      	ldmia	r4!, {r0}
10001c00:	f001 f866 	bl	10002cd0 <__aeabi_fmul>
10001c04:	1c01      	adds	r1, r0, #0
10001c06:	4648      	mov	r0, r9
10001c08:	f000 fc9a 	bl	10002540 <__aeabi_fadd>
10001c0c:	6871      	ldr	r1, [r6, #4]
10001c0e:	4681      	mov	r9, r0
10001c10:	6868      	ldr	r0, [r5, #4]
10001c12:	f001 f85d 	bl	10002cd0 <__aeabi_fmul>
10001c16:	1c01      	adds	r1, r0, #0
10001c18:	4648      	mov	r0, r9
10001c1a:	f000 fc91 	bl	10002540 <__aeabi_fadd>
10001c1e:	4681      	mov	r9, r0
         i--;
10001c20:	2002      	movs	r0, #2
10001c22:	4241      	negs	r1, r0
10001c24:	4488      	add	r8, r1

      } while(i > 0u);
10001c26:	4642      	mov	r2, r8
10001c28:	1d25      	adds	r5, r4, #4

      /* Perform the multiply-accumulates */
      do
      {
         /* acc =  b[numTaps-1] * x[n-numTaps-1] + b[numTaps-2] * x[n-numTaps-2] + b[numTaps-3] * x[n-numTaps-3] +...+ b[0] * x[0] */
         acc += *px++ * *pb++;
10001c2a:	1d3e      	adds	r6, r7, #4
         i--;

      } while(i > 0u);
10001c2c:	2a00      	cmp	r2, #0
10001c2e:	d1e3      	bne.n	10001bf8 <arm_fir_f32+0x88>
      *pDst++ = acc;

      /* Advance state pointer by 1 for the next sample */
      pState = pState + 1;

      blkCnt--;
10001c30:	2701      	movs	r7, #1
         i--;

      } while(i > 0u);

      /* The result is store in the destination buffer. */
      *pDst++ = acc;
10001c32:	9d01      	ldr	r5, [sp, #4]

      /* Advance state pointer by 1 for the next sample */
      pState = pState + 1;

      blkCnt--;
10001c34:	427e      	negs	r6, r7
         i--;

      } while(i > 0u);

      /* The result is store in the destination buffer. */
      *pDst++ = acc;
10001c36:	464b      	mov	r3, r9

      /* Advance state pointer by 1 for the next sample */
      pState = pState + 1;

      blkCnt--;
10001c38:	44b3      	add	fp, r6
         i--;

      } while(i > 0u);

      /* The result is store in the destination buffer. */
      *pDst++ = acc;
10001c3a:	c508      	stmia	r5!, {r3}

      /* Advance state pointer by 1 for the next sample */
      pState = pState + 1;
10001c3c:	2404      	movs	r4, #4
   pStateCurnt = &(S->pState[(numTaps - 1u)]);

   /* Initialize blkCnt with blockSize */
   blkCnt = blockSize;

   while(blkCnt > 0u)
10001c3e:	4658      	mov	r0, fp
         i--;

      } while(i > 0u);

      /* The result is store in the destination buffer. */
      *pDst++ = acc;
10001c40:	9501      	str	r5, [sp, #4]

      /* Advance state pointer by 1 for the next sample */
      pState = pState + 1;
10001c42:	44a2      	add	sl, r4
   pStateCurnt = &(S->pState[(numTaps - 1u)]);

   /* Initialize blkCnt with blockSize */
   blkCnt = blockSize;

   while(blkCnt > 0u)
10001c44:	2800      	cmp	r0, #0
10001c46:	d1ad      	bne.n	10001ba4 <arm_fir_f32+0x34>
   }
}

#else

void arm_fir_f32(
10001c48:	9907      	ldr	r1, [sp, #28]
10001c4a:	9d05      	ldr	r5, [sp, #20]
10001c4c:	008a      	lsls	r2, r1, #2
10001c4e:	18af      	adds	r7, r5, r2

   /* Copy numTaps number of values */
   tapCnt = numTaps - 1u;

   /* Copy data */
   while(tapCnt > 0u)
10001c50:	9b06      	ldr	r3, [sp, #24]
10001c52:	2b00      	cmp	r3, #0
10001c54:	d01c      	beq.n	10001c90 <arm_fir_f32+0x120>
10001c56:	1c1c      	adds	r4, r3, #0
10001c58:	2601      	movs	r6, #1
   {
      *pStateCurnt++ = *pState++;
10001c5a:	cf02      	ldmia	r7!, {r1}
10001c5c:	9b05      	ldr	r3, [sp, #20]
10001c5e:	3c01      	subs	r4, #1
10001c60:	1c30      	adds	r0, r6, #0
10001c62:	4020      	ands	r0, r4
10001c64:	c302      	stmia	r3!, {r1}

   /* Copy numTaps number of values */
   tapCnt = numTaps - 1u;

   /* Copy data */
   while(tapCnt > 0u)
10001c66:	2c00      	cmp	r4, #0
10001c68:	d012      	beq.n	10001c90 <arm_fir_f32+0x120>
10001c6a:	2800      	cmp	r0, #0
10001c6c:	d005      	beq.n	10001c7a <arm_fir_f32+0x10a>
   {
      *pStateCurnt++ = *pState++;
10001c6e:	cf10      	ldmia	r7!, {r4}
10001c70:	c310      	stmia	r3!, {r4}

      /* Decrement the loop counter */
      tapCnt--;
10001c72:	9c06      	ldr	r4, [sp, #24]
10001c74:	3c02      	subs	r4, #2

   /* Copy numTaps number of values */
   tapCnt = numTaps - 1u;

   /* Copy data */
   while(tapCnt > 0u)
10001c76:	2c00      	cmp	r4, #0
10001c78:	d00a      	beq.n	10001c90 <arm_fir_f32+0x120>
   {
      *pStateCurnt++ = *pState++;
10001c7a:	1c3e      	adds	r6, r7, #0
10001c7c:	ce04      	ldmia	r6!, {r2}
10001c7e:	1c1d      	adds	r5, r3, #0
10001c80:	c504      	stmia	r5!, {r2}
10001c82:	687f      	ldr	r7, [r7, #4]

      /* Decrement the loop counter */
      tapCnt--;
10001c84:	3c02      	subs	r4, #2
   tapCnt = numTaps - 1u;

   /* Copy data */
   while(tapCnt > 0u)
   {
      *pStateCurnt++ = *pState++;
10001c86:	605f      	str	r7, [r3, #4]
10001c88:	1d37      	adds	r7, r6, #4
10001c8a:	1d2b      	adds	r3, r5, #4

   /* Copy numTaps number of values */
   tapCnt = numTaps - 1u;

   /* Copy data */
   while(tapCnt > 0u)
10001c8c:	2c00      	cmp	r4, #0
10001c8e:	d1f4      	bne.n	10001c7a <arm_fir_f32+0x10a>

      /* Decrement the loop counter */
      tapCnt--;
   }

}
10001c90:	b009      	add	sp, #36	; 0x24
10001c92:	bc3c      	pop	{r2, r3, r4, r5}
10001c94:	4690      	mov	r8, r2
10001c96:	4699      	mov	r9, r3
10001c98:	46a2      	mov	sl, r4
10001c9a:	46ab      	mov	fp, r5
10001c9c:	bdf0      	pop	{r4, r5, r6, r7, pc}
10001c9e:	46c0      	nop			; (mov r8, r8)

10001ca0 <arm_fir_init_f32>:
  arm_fir_instance_f32 * S,
  uint16_t numTaps,
  float32_t * pCoeffs,
  float32_t * pState,
  uint32_t blockSize)
{
10001ca0:	b538      	push	{r3, r4, r5, lr}
10001ca2:	1c1d      	adds	r5, r3, #0

  /* Assign coefficient pointer */
  S->pCoeffs = pCoeffs;

  /* Clear state buffer and the size of state buffer is (blockSize + numTaps - 1) */
  memset(pState, 0, (numTaps + (blockSize - 1u)) * sizeof(float32_t));
10001ca4:	4b06      	ldr	r3, [pc, #24]	; (10001cc0 <arm_fir_init_f32+0x20>)
  arm_fir_instance_f32 * S,
  uint16_t numTaps,
  float32_t * pCoeffs,
  float32_t * pState,
  uint32_t blockSize)
{
10001ca6:	1c04      	adds	r4, r0, #0
  /* Assign filter taps */
  S->numTaps = numTaps;
10001ca8:	8001      	strh	r1, [r0, #0]

  /* Assign coefficient pointer */
  S->pCoeffs = pCoeffs;
10001caa:	6082      	str	r2, [r0, #8]

  /* Clear state buffer and the size of state buffer is (blockSize + numTaps - 1) */
  memset(pState, 0, (numTaps + (blockSize - 1u)) * sizeof(float32_t));
10001cac:	9804      	ldr	r0, [sp, #16]
10001cae:	18ca      	adds	r2, r1, r3
10001cb0:	1811      	adds	r1, r2, r0
10001cb2:	008a      	lsls	r2, r1, #2
10001cb4:	1c28      	adds	r0, r5, #0
10001cb6:	2100      	movs	r1, #0
10001cb8:	f003 faae 	bl	10005218 <memset>

  /* Assign state pointer */
  S->pState = pState;
10001cbc:	6065      	str	r5, [r4, #4]

}
10001cbe:	bd38      	pop	{r3, r4, r5, pc}
10001cc0:	3fffffff 	.word	0x3fffffff
10001cc4:	00000000 	.word	0x00000000

10001cc8 <log10>:
10001cc8:	b5f0      	push	{r4, r5, r6, r7, lr}
10001cca:	4647      	mov	r7, r8
10001ccc:	b480      	push	{r7}
10001cce:	b08a      	sub	sp, #40	; 0x28
10001cd0:	1c04      	adds	r4, r0, #0
10001cd2:	1c0d      	adds	r5, r1, #0
10001cd4:	f000 f87c 	bl	10001dd0 <__ieee754_log10>
10001cd8:	4a39      	ldr	r2, [pc, #228]	; (10001dc0 <log10+0xf8>)
10001cda:	2300      	movs	r3, #0
10001cdc:	1c06      	adds	r6, r0, #0
10001cde:	56d0      	ldrsb	r0, [r2, r3]
10001ce0:	1c0f      	adds	r7, r1, #0
10001ce2:	4690      	mov	r8, r2
10001ce4:	1c43      	adds	r3, r0, #1
10001ce6:	d00d      	beq.n	10001d04 <log10+0x3c>
10001ce8:	1c20      	adds	r0, r4, #0
10001cea:	1c29      	adds	r1, r5, #0
10001cec:	f000 f910 	bl	10001f10 <__fpclassifyd>
10001cf0:	2800      	cmp	r0, #0
10001cf2:	d007      	beq.n	10001d04 <log10+0x3c>
10001cf4:	1c20      	adds	r0, r4, #0
10001cf6:	1c29      	adds	r1, r5, #0
10001cf8:	4b2c      	ldr	r3, [pc, #176]	; (10001dac <log10+0xe4>)
10001cfa:	4a2b      	ldr	r2, [pc, #172]	; (10001da8 <log10+0xe0>)
10001cfc:	f000 fbc8 	bl	10002490 <__aeabi_dcmple>
10001d00:	2800      	cmp	r0, #0
10001d02:	d105      	bne.n	10001d10 <log10+0x48>
10001d04:	1c30      	adds	r0, r6, #0
10001d06:	1c39      	adds	r1, r7, #0
10001d08:	b00a      	add	sp, #40	; 0x28
10001d0a:	bc04      	pop	{r2}
10001d0c:	4690      	mov	r8, r2
10001d0e:	bdf0      	pop	{r4, r5, r6, r7, pc}
10001d10:	2600      	movs	r6, #0
10001d12:	4647      	mov	r7, r8
10001d14:	492b      	ldr	r1, [pc, #172]	; (10001dc4 <log10+0xfc>)
10001d16:	9608      	str	r6, [sp, #32]
10001d18:	783e      	ldrb	r6, [r7, #0]
10001d1a:	9101      	str	r1, [sp, #4]
10001d1c:	9402      	str	r4, [sp, #8]
10001d1e:	9503      	str	r5, [sp, #12]
10001d20:	9404      	str	r4, [sp, #16]
10001d22:	9505      	str	r5, [sp, #20]
10001d24:	2e00      	cmp	r6, #0
10001d26:	d129      	bne.n	10001d7c <log10+0xb4>
10001d28:	4821      	ldr	r0, [pc, #132]	; (10001db0 <log10+0xe8>)
10001d2a:	4922      	ldr	r1, [pc, #136]	; (10001db4 <log10+0xec>)
10001d2c:	9006      	str	r0, [sp, #24]
10001d2e:	9107      	str	r1, [sp, #28]
10001d30:	1c20      	adds	r0, r4, #0
10001d32:	1c29      	adds	r1, r5, #0
10001d34:	4b1d      	ldr	r3, [pc, #116]	; (10001dac <log10+0xe4>)
10001d36:	4a1c      	ldr	r2, [pc, #112]	; (10001da8 <log10+0xe0>)
10001d38:	f000 fb9a 	bl	10002470 <__aeabi_dcmpeq>
10001d3c:	2800      	cmp	r0, #0
10001d3e:	d00e      	beq.n	10001d5e <log10+0x96>
10001d40:	2302      	movs	r3, #2
10001d42:	9300      	str	r3, [sp, #0]
10001d44:	2e02      	cmp	r6, #2
10001d46:	d023      	beq.n	10001d90 <log10+0xc8>
10001d48:	4668      	mov	r0, sp
10001d4a:	f000 f919 	bl	10001f80 <matherr>
10001d4e:	2800      	cmp	r0, #0
10001d50:	d01e      	beq.n	10001d90 <log10+0xc8>
10001d52:	9f08      	ldr	r7, [sp, #32]
10001d54:	2f00      	cmp	r7, #0
10001d56:	d120      	bne.n	10001d9a <log10+0xd2>
10001d58:	9e06      	ldr	r6, [sp, #24]
10001d5a:	9f07      	ldr	r7, [sp, #28]
10001d5c:	e7d2      	b.n	10001d04 <log10+0x3c>
10001d5e:	2401      	movs	r4, #1
10001d60:	9400      	str	r4, [sp, #0]
10001d62:	2e02      	cmp	r6, #2
10001d64:	d00f      	beq.n	10001d86 <log10+0xbe>
10001d66:	4668      	mov	r0, sp
10001d68:	f000 f90a 	bl	10001f80 <matherr>
10001d6c:	2800      	cmp	r0, #0
10001d6e:	d00a      	beq.n	10001d86 <log10+0xbe>
10001d70:	4815      	ldr	r0, [pc, #84]	; (10001dc8 <log10+0x100>)
10001d72:	f000 f909 	bl	10001f88 <nan>
10001d76:	9006      	str	r0, [sp, #24]
10001d78:	9107      	str	r1, [sp, #28]
10001d7a:	e7ea      	b.n	10001d52 <log10+0x8a>
10001d7c:	4a0e      	ldr	r2, [pc, #56]	; (10001db8 <log10+0xf0>)
10001d7e:	4b0f      	ldr	r3, [pc, #60]	; (10001dbc <log10+0xf4>)
10001d80:	9206      	str	r2, [sp, #24]
10001d82:	9307      	str	r3, [sp, #28]
10001d84:	e7d4      	b.n	10001d30 <log10+0x68>
10001d86:	f003 fa41 	bl	1000520c <__errno>
10001d8a:	2521      	movs	r5, #33	; 0x21
10001d8c:	6005      	str	r5, [r0, #0]
10001d8e:	e7ef      	b.n	10001d70 <log10+0xa8>
10001d90:	f003 fa3c 	bl	1000520c <__errno>
10001d94:	2122      	movs	r1, #34	; 0x22
10001d96:	6001      	str	r1, [r0, #0]
10001d98:	e7db      	b.n	10001d52 <log10+0x8a>
10001d9a:	f003 fa37 	bl	1000520c <__errno>
10001d9e:	9e08      	ldr	r6, [sp, #32]
10001da0:	6006      	str	r6, [r0, #0]
10001da2:	e7d9      	b.n	10001d58 <log10+0x90>
10001da4:	46c0      	nop			; (mov r8, r8)
10001da6:	46c0      	nop			; (mov r8, r8)
	...
10001db0:	e0000000 	.word	0xe0000000
10001db4:	c7efffff 	.word	0xc7efffff
10001db8:	00000000 	.word	0x00000000
10001dbc:	fff00000 	.word	0xfff00000
10001dc0:	20001958 	.word	0x20001958
10001dc4:	100053b4 	.word	0x100053b4
10001dc8:	100053bc 	.word	0x100053bc
10001dcc:	46c0      	nop			; (mov r8, r8)
10001dce:	46c0      	nop			; (mov r8, r8)

10001dd0 <__ieee754_log10>:
10001dd0:	b5f0      	push	{r4, r5, r6, r7, lr}
10001dd2:	464f      	mov	r7, r9
10001dd4:	4646      	mov	r6, r8
10001dd6:	b4c0      	push	{r6, r7}
10001dd8:	1c04      	adds	r4, r0, #0
10001dda:	1c02      	adds	r2, r0, #0
10001ddc:	4848      	ldr	r0, [pc, #288]	; (10001f00 <__ieee754_log10+0x130>)
10001dde:	b083      	sub	sp, #12
10001de0:	1c0d      	adds	r5, r1, #0
10001de2:	1e0b      	subs	r3, r1, #0
10001de4:	4283      	cmp	r3, r0
10001de6:	dc1e      	bgt.n	10001e26 <__ieee754_log10+0x56>
10001de8:	004b      	lsls	r3, r1, #1
10001dea:	085e      	lsrs	r6, r3, #1
10001dec:	4332      	orrs	r2, r6
10001dee:	d05b      	beq.n	10001ea8 <__ieee754_log10+0xd8>
10001df0:	1c20      	adds	r0, r4, #0
10001df2:	2900      	cmp	r1, #0
10001df4:	db5f      	blt.n	10001eb6 <__ieee754_log10+0xe6>
10001df6:	4b37      	ldr	r3, [pc, #220]	; (10001ed4 <__ieee754_log10+0x104>)
10001df8:	4a35      	ldr	r2, [pc, #212]	; (10001ed0 <__ieee754_log10+0x100>)
10001dfa:	1c29      	adds	r1, r5, #0
10001dfc:	f002 fa90 	bl	10004320 <__aeabi_dmul>
10001e00:	4a40      	ldr	r2, [pc, #256]	; (10001f04 <__ieee754_log10+0x134>)
10001e02:	2736      	movs	r7, #54	; 0x36
10001e04:	1c0d      	adds	r5, r1, #0
10001e06:	1c0b      	adds	r3, r1, #0
10001e08:	1c04      	adds	r4, r0, #0
10001e0a:	4279      	negs	r1, r7
10001e0c:	4293      	cmp	r3, r2
10001e0e:	dd0e      	ble.n	10001e2e <__ieee754_log10+0x5e>
10001e10:	1c20      	adds	r0, r4, #0
10001e12:	1c29      	adds	r1, r5, #0
10001e14:	1c22      	adds	r2, r4, #0
10001e16:	1c2b      	adds	r3, r5, #0
10001e18:	f001 fad8 	bl	100033cc <__aeabi_dadd>
10001e1c:	b003      	add	sp, #12
10001e1e:	bc0c      	pop	{r2, r3}
10001e20:	4690      	mov	r8, r2
10001e22:	4699      	mov	r9, r3
10001e24:	bdf0      	pop	{r4, r5, r6, r7, pc}
10001e26:	4a37      	ldr	r2, [pc, #220]	; (10001f04 <__ieee754_log10+0x134>)
10001e28:	2100      	movs	r1, #0
10001e2a:	4293      	cmp	r3, r2
10001e2c:	dcf0      	bgt.n	10001e10 <__ieee754_log10+0x40>
10001e2e:	4836      	ldr	r0, [pc, #216]	; (10001f08 <__ieee754_log10+0x138>)
10001e30:	151a      	asrs	r2, r3, #20
10001e32:	1812      	adds	r2, r2, r0
10001e34:	1851      	adds	r1, r2, r1
10001e36:	0fca      	lsrs	r2, r1, #31
10001e38:	031b      	lsls	r3, r3, #12
10001e3a:	0b1b      	lsrs	r3, r3, #12
10001e3c:	1888      	adds	r0, r1, r2
10001e3e:	4690      	mov	r8, r2
10001e40:	4699      	mov	r9, r3
10001e42:	f003 f895 	bl	10004f70 <__aeabi_i2d>
10001e46:	4b31      	ldr	r3, [pc, #196]	; (10001f0c <__ieee754_log10+0x13c>)
10001e48:	1c06      	adds	r6, r0, #0
10001e4a:	4640      	mov	r0, r8
10001e4c:	1a1b      	subs	r3, r3, r0
10001e4e:	051b      	lsls	r3, r3, #20
10001e50:	464d      	mov	r5, r9
10001e52:	431d      	orrs	r5, r3
10001e54:	1c0f      	adds	r7, r1, #0
10001e56:	1c20      	adds	r0, r4, #0
10001e58:	1c29      	adds	r1, r5, #0
10001e5a:	f000 f89d 	bl	10001f98 <__ieee754_log>
10001e5e:	4a1e      	ldr	r2, [pc, #120]	; (10001ed8 <__ieee754_log10+0x108>)
10001e60:	4b1e      	ldr	r3, [pc, #120]	; (10001edc <__ieee754_log10+0x10c>)
10001e62:	1c04      	adds	r4, r0, #0
10001e64:	1c0d      	adds	r5, r1, #0
10001e66:	1c30      	adds	r0, r6, #0
10001e68:	1c39      	adds	r1, r7, #0
10001e6a:	f002 fa59 	bl	10004320 <__aeabi_dmul>
10001e6e:	4a1c      	ldr	r2, [pc, #112]	; (10001ee0 <__ieee754_log10+0x110>)
10001e70:	4b1c      	ldr	r3, [pc, #112]	; (10001ee4 <__ieee754_log10+0x114>)
10001e72:	9000      	str	r0, [sp, #0]
10001e74:	9101      	str	r1, [sp, #4]
10001e76:	1c30      	adds	r0, r6, #0
10001e78:	1c39      	adds	r1, r7, #0
10001e7a:	f002 fa51 	bl	10004320 <__aeabi_dmul>
10001e7e:	4a1a      	ldr	r2, [pc, #104]	; (10001ee8 <__ieee754_log10+0x118>)
10001e80:	4b1a      	ldr	r3, [pc, #104]	; (10001eec <__ieee754_log10+0x11c>)
10001e82:	1c06      	adds	r6, r0, #0
10001e84:	1c0f      	adds	r7, r1, #0
10001e86:	1c20      	adds	r0, r4, #0
10001e88:	1c29      	adds	r1, r5, #0
10001e8a:	f002 fa49 	bl	10004320 <__aeabi_dmul>
10001e8e:	1c02      	adds	r2, r0, #0
10001e90:	1c0b      	adds	r3, r1, #0
10001e92:	1c30      	adds	r0, r6, #0
10001e94:	1c39      	adds	r1, r7, #0
10001e96:	f001 fa99 	bl	100033cc <__aeabi_dadd>
10001e9a:	1c02      	adds	r2, r0, #0
10001e9c:	1c0b      	adds	r3, r1, #0
10001e9e:	9800      	ldr	r0, [sp, #0]
10001ea0:	9901      	ldr	r1, [sp, #4]
10001ea2:	f001 fa93 	bl	100033cc <__aeabi_dadd>
10001ea6:	e7b9      	b.n	10001e1c <__ieee754_log10+0x4c>
10001ea8:	4a11      	ldr	r2, [pc, #68]	; (10001ef0 <__ieee754_log10+0x120>)
10001eaa:	4b12      	ldr	r3, [pc, #72]	; (10001ef4 <__ieee754_log10+0x124>)
10001eac:	4812      	ldr	r0, [pc, #72]	; (10001ef8 <__ieee754_log10+0x128>)
10001eae:	4913      	ldr	r1, [pc, #76]	; (10001efc <__ieee754_log10+0x12c>)
10001eb0:	f001 fe3c 	bl	10003b2c <__aeabi_ddiv>
10001eb4:	e7b2      	b.n	10001e1c <__ieee754_log10+0x4c>
10001eb6:	1c22      	adds	r2, r4, #0
10001eb8:	1c2b      	adds	r3, r5, #0
10001eba:	1c29      	adds	r1, r5, #0
10001ebc:	f002 fca2 	bl	10004804 <__aeabi_dsub>
10001ec0:	4a0b      	ldr	r2, [pc, #44]	; (10001ef0 <__ieee754_log10+0x120>)
10001ec2:	4b0c      	ldr	r3, [pc, #48]	; (10001ef4 <__ieee754_log10+0x124>)
10001ec4:	f001 fe32 	bl	10003b2c <__aeabi_ddiv>
10001ec8:	e7a8      	b.n	10001e1c <__ieee754_log10+0x4c>
10001eca:	46c0      	nop			; (mov r8, r8)
10001ecc:	46c0      	nop			; (mov r8, r8)
10001ece:	46c0      	nop			; (mov r8, r8)
10001ed0:	00000000 	.word	0x00000000
10001ed4:	43500000 	.word	0x43500000
10001ed8:	509f6000 	.word	0x509f6000
10001edc:	3fd34413 	.word	0x3fd34413
10001ee0:	11f12b36 	.word	0x11f12b36
10001ee4:	3d59fef3 	.word	0x3d59fef3
10001ee8:	1526e50e 	.word	0x1526e50e
10001eec:	3fdbcb7b 	.word	0x3fdbcb7b
	...
10001efc:	c3500000 	.word	0xc3500000
10001f00:	000fffff 	.word	0x000fffff
10001f04:	7fefffff 	.word	0x7fefffff
10001f08:	fffffc01 	.word	0xfffffc01
10001f0c:	000003ff 	.word	0x000003ff

10001f10 <__fpclassifyd>:
10001f10:	1c0b      	adds	r3, r1, #0
10001f12:	1c01      	adds	r1, r0, #0
10001f14:	b530      	push	{r4, r5, lr}
10001f16:	4319      	orrs	r1, r3
10001f18:	2202      	movs	r2, #2
10001f1a:	2900      	cmp	r1, #0
10001f1c:	d101      	bne.n	10001f22 <__fpclassifyd+0x12>
10001f1e:	1c10      	adds	r0, r2, #0
10001f20:	bd30      	pop	{r4, r5, pc}
10001f22:	2480      	movs	r4, #128	; 0x80
10001f24:	0625      	lsls	r5, r4, #24
10001f26:	42ab      	cmp	r3, r5
10001f28:	d01e      	beq.n	10001f68 <__fpclassifyd+0x58>
10001f2a:	4a11      	ldr	r2, [pc, #68]	; (10001f70 <__fpclassifyd+0x60>)
10001f2c:	4911      	ldr	r1, [pc, #68]	; (10001f74 <__fpclassifyd+0x64>)
10001f2e:	189c      	adds	r4, r3, r2
10001f30:	2204      	movs	r2, #4
10001f32:	428c      	cmp	r4, r1
10001f34:	d9f3      	bls.n	10001f1e <__fpclassifyd+0xe>
10001f36:	4d10      	ldr	r5, [pc, #64]	; (10001f78 <__fpclassifyd+0x68>)
10001f38:	195c      	adds	r4, r3, r5
10001f3a:	428c      	cmp	r4, r1
10001f3c:	d9ef      	bls.n	10001f1e <__fpclassifyd+0xe>
10001f3e:	490f      	ldr	r1, [pc, #60]	; (10001f7c <__fpclassifyd+0x6c>)
10001f40:	2203      	movs	r2, #3
10001f42:	428b      	cmp	r3, r1
10001f44:	d9eb      	bls.n	10001f1e <__fpclassifyd+0xe>
10001f46:	2280      	movs	r2, #128	; 0x80
10001f48:	0615      	lsls	r5, r2, #24
10001f4a:	490c      	ldr	r1, [pc, #48]	; (10001f7c <__fpclassifyd+0x6c>)
10001f4c:	195c      	adds	r4, r3, r5
10001f4e:	2203      	movs	r2, #3
10001f50:	428c      	cmp	r4, r1
10001f52:	d9e4      	bls.n	10001f1e <__fpclassifyd+0xe>
10001f54:	4a08      	ldr	r2, [pc, #32]	; (10001f78 <__fpclassifyd+0x68>)
10001f56:	4293      	cmp	r3, r2
10001f58:	d003      	beq.n	10001f62 <__fpclassifyd+0x52>
10001f5a:	4d05      	ldr	r5, [pc, #20]	; (10001f70 <__fpclassifyd+0x60>)
10001f5c:	2200      	movs	r2, #0
10001f5e:	42ab      	cmp	r3, r5
10001f60:	d1dd      	bne.n	10001f1e <__fpclassifyd+0xe>
10001f62:	4242      	negs	r2, r0
10001f64:	4142      	adcs	r2, r0
10001f66:	e7da      	b.n	10001f1e <__fpclassifyd+0xe>
10001f68:	2800      	cmp	r0, #0
10001f6a:	d0d8      	beq.n	10001f1e <__fpclassifyd+0xe>
10001f6c:	e7eb      	b.n	10001f46 <__fpclassifyd+0x36>
10001f6e:	46c0      	nop			; (mov r8, r8)
10001f70:	fff00000 	.word	0xfff00000
10001f74:	7fdfffff 	.word	0x7fdfffff
10001f78:	7ff00000 	.word	0x7ff00000
10001f7c:	000fffff 	.word	0x000fffff

10001f80 <matherr>:
10001f80:	2000      	movs	r0, #0
10001f82:	4770      	bx	lr
10001f84:	0000      	movs	r0, r0
	...

10001f88 <nan>:
10001f88:	4902      	ldr	r1, [pc, #8]	; (10001f94 <nan+0xc>)
10001f8a:	4801      	ldr	r0, [pc, #4]	; (10001f90 <nan+0x8>)
10001f8c:	4770      	bx	lr
10001f8e:	46c0      	nop			; (mov r8, r8)
10001f90:	00000000 	.word	0x00000000
10001f94:	7ff80000 	.word	0x7ff80000

10001f98 <__ieee754_log>:
10001f98:	b5f0      	push	{r4, r5, r6, r7, lr}
10001f9a:	464e      	mov	r6, r9
10001f9c:	4657      	mov	r7, sl
10001f9e:	4645      	mov	r5, r8
10001fa0:	b4e0      	push	{r5, r6, r7}
10001fa2:	4ec1      	ldr	r6, [pc, #772]	; (100022a8 <__ieee754_log+0x310>)
10001fa4:	b088      	sub	sp, #32
10001fa6:	1c02      	adds	r2, r0, #0
10001fa8:	1c0b      	adds	r3, r1, #0
10001faa:	1c04      	adds	r4, r0, #0
10001fac:	42b3      	cmp	r3, r6
10001fae:	dc58      	bgt.n	10002062 <__ieee754_log+0xca>
10001fb0:	005d      	lsls	r5, r3, #1
10001fb2:	0869      	lsrs	r1, r5, #1
10001fb4:	430c      	orrs	r4, r1
10001fb6:	d100      	bne.n	10001fba <__ieee754_log+0x22>
10001fb8:	e0ed      	b.n	10002196 <__ieee754_log+0x1fe>
10001fba:	2b00      	cmp	r3, #0
10001fbc:	da00      	bge.n	10001fc0 <__ieee754_log+0x28>
10001fbe:	e1b2      	b.n	10002326 <__ieee754_log+0x38e>
10001fc0:	1c10      	adds	r0, r2, #0
10001fc2:	1c19      	adds	r1, r3, #0
10001fc4:	4b99      	ldr	r3, [pc, #612]	; (1000222c <__ieee754_log+0x294>)
10001fc6:	4a98      	ldr	r2, [pc, #608]	; (10002228 <__ieee754_log+0x290>)
10001fc8:	f002 f9aa 	bl	10004320 <__aeabi_dmul>
10001fcc:	1c02      	adds	r2, r0, #0
10001fce:	48b7      	ldr	r0, [pc, #732]	; (100022ac <__ieee754_log+0x314>)
10001fd0:	2436      	movs	r4, #54	; 0x36
10001fd2:	1c0b      	adds	r3, r1, #0
10001fd4:	4267      	negs	r7, r4
10001fd6:	4281      	cmp	r1, r0
10001fd8:	dc47      	bgt.n	1000206a <__ieee754_log+0xd2>
10001fda:	150b      	asrs	r3, r1, #20
10001fdc:	4eb4      	ldr	r6, [pc, #720]	; (100022b0 <__ieee754_log+0x318>)
10001fde:	0309      	lsls	r1, r1, #12
10001fe0:	48b4      	ldr	r0, [pc, #720]	; (100022b4 <__ieee754_log+0x31c>)
10001fe2:	0b0c      	lsrs	r4, r1, #12
10001fe4:	199d      	adds	r5, r3, r6
10001fe6:	46a0      	mov	r8, r4
10001fe8:	1c03      	adds	r3, r0, #0
10001fea:	2680      	movs	r6, #128	; 0x80
10001fec:	19ef      	adds	r7, r5, r7
10001fee:	4443      	add	r3, r8
10001ff0:	0375      	lsls	r5, r6, #13
10001ff2:	49b1      	ldr	r1, [pc, #708]	; (100022b8 <__ieee754_log+0x320>)
10001ff4:	401d      	ands	r5, r3
10001ff6:	4069      	eors	r1, r5
10001ff8:	1528      	asrs	r0, r5, #20
10001ffa:	430c      	orrs	r4, r1
10001ffc:	19c7      	adds	r7, r0, r7
10001ffe:	1c21      	adds	r1, r4, #0
10002000:	1c10      	adds	r0, r2, #0
10002002:	4a8b      	ldr	r2, [pc, #556]	; (10002230 <__ieee754_log+0x298>)
10002004:	4b8b      	ldr	r3, [pc, #556]	; (10002234 <__ieee754_log+0x29c>)
10002006:	f002 fbfd 	bl	10004804 <__aeabi_dsub>
1000200a:	4642      	mov	r2, r8
1000200c:	3202      	adds	r2, #2
1000200e:	0313      	lsls	r3, r2, #12
10002010:	46b9      	mov	r9, r7
10002012:	1c06      	adds	r6, r0, #0
10002014:	1c0f      	adds	r7, r1, #0
10002016:	0b1d      	lsrs	r5, r3, #12
10002018:	2d02      	cmp	r5, #2
1000201a:	dc30      	bgt.n	1000207e <__ieee754_log+0xe6>
1000201c:	4a86      	ldr	r2, [pc, #536]	; (10002238 <__ieee754_log+0x2a0>)
1000201e:	4b87      	ldr	r3, [pc, #540]	; (1000223c <__ieee754_log+0x2a4>)
10002020:	f000 fa26 	bl	10002470 <__aeabi_dcmpeq>
10002024:	2800      	cmp	r0, #0
10002026:	d100      	bne.n	1000202a <__ieee754_log+0x92>
10002028:	e0bc      	b.n	100021a4 <__ieee754_log+0x20c>
1000202a:	464e      	mov	r6, r9
1000202c:	2e00      	cmp	r6, #0
1000202e:	d100      	bne.n	10002032 <__ieee754_log+0x9a>
10002030:	e182      	b.n	10002338 <__ieee754_log+0x3a0>
10002032:	4648      	mov	r0, r9
10002034:	f002 ff9c 	bl	10004f70 <__aeabi_i2d>
10002038:	4a81      	ldr	r2, [pc, #516]	; (10002240 <__ieee754_log+0x2a8>)
1000203a:	4b82      	ldr	r3, [pc, #520]	; (10002244 <__ieee754_log+0x2ac>)
1000203c:	1c04      	adds	r4, r0, #0
1000203e:	1c0d      	adds	r5, r1, #0
10002040:	f002 f96e 	bl	10004320 <__aeabi_dmul>
10002044:	4a80      	ldr	r2, [pc, #512]	; (10002248 <__ieee754_log+0x2b0>)
10002046:	4b81      	ldr	r3, [pc, #516]	; (1000224c <__ieee754_log+0x2b4>)
10002048:	1c06      	adds	r6, r0, #0
1000204a:	1c0f      	adds	r7, r1, #0
1000204c:	1c20      	adds	r0, r4, #0
1000204e:	1c29      	adds	r1, r5, #0
10002050:	f002 f966 	bl	10004320 <__aeabi_dmul>
10002054:	1c02      	adds	r2, r0, #0
10002056:	1c0b      	adds	r3, r1, #0
10002058:	1c30      	adds	r0, r6, #0
1000205a:	1c39      	adds	r1, r7, #0
1000205c:	f001 f9b6 	bl	100033cc <__aeabi_dadd>
10002060:	e007      	b.n	10002072 <__ieee754_log+0xda>
10002062:	4892      	ldr	r0, [pc, #584]	; (100022ac <__ieee754_log+0x314>)
10002064:	2700      	movs	r7, #0
10002066:	4281      	cmp	r1, r0
10002068:	ddb7      	ble.n	10001fda <__ieee754_log+0x42>
1000206a:	1c10      	adds	r0, r2, #0
1000206c:	1c19      	adds	r1, r3, #0
1000206e:	f001 f9ad 	bl	100033cc <__aeabi_dadd>
10002072:	b008      	add	sp, #32
10002074:	bc1c      	pop	{r2, r3, r4}
10002076:	4690      	mov	r8, r2
10002078:	4699      	mov	r9, r3
1000207a:	46a2      	mov	sl, r4
1000207c:	bdf0      	pop	{r4, r5, r6, r7, pc}
1000207e:	4a74      	ldr	r2, [pc, #464]	; (10002250 <__ieee754_log+0x2b8>)
10002080:	4b74      	ldr	r3, [pc, #464]	; (10002254 <__ieee754_log+0x2bc>)
10002082:	f001 f9a3 	bl	100033cc <__aeabi_dadd>
10002086:	1c02      	adds	r2, r0, #0
10002088:	1c0b      	adds	r3, r1, #0
1000208a:	1c30      	adds	r0, r6, #0
1000208c:	1c39      	adds	r1, r7, #0
1000208e:	f001 fd4d 	bl	10003b2c <__aeabi_ddiv>
10002092:	9002      	str	r0, [sp, #8]
10002094:	9103      	str	r1, [sp, #12]
10002096:	4648      	mov	r0, r9
10002098:	f002 ff6a 	bl	10004f70 <__aeabi_i2d>
1000209c:	9004      	str	r0, [sp, #16]
1000209e:	9105      	str	r1, [sp, #20]
100020a0:	9802      	ldr	r0, [sp, #8]
100020a2:	9903      	ldr	r1, [sp, #12]
100020a4:	1c02      	adds	r2, r0, #0
100020a6:	1c0b      	adds	r3, r1, #0
100020a8:	f002 f93a 	bl	10004320 <__aeabi_dmul>
100020ac:	1c02      	adds	r2, r0, #0
100020ae:	1c0b      	adds	r3, r1, #0
100020b0:	9000      	str	r0, [sp, #0]
100020b2:	9101      	str	r1, [sp, #4]
100020b4:	f002 f934 	bl	10004320 <__aeabi_dmul>
100020b8:	4a67      	ldr	r2, [pc, #412]	; (10002258 <__ieee754_log+0x2c0>)
100020ba:	4b68      	ldr	r3, [pc, #416]	; (1000225c <__ieee754_log+0x2c4>)
100020bc:	4c7f      	ldr	r4, [pc, #508]	; (100022bc <__ieee754_log+0x324>)
100020be:	1c0d      	adds	r5, r1, #0
100020c0:	46a2      	mov	sl, r4
100020c2:	1c04      	adds	r4, r0, #0
100020c4:	f002 f92c 	bl	10004320 <__aeabi_dmul>
100020c8:	4a65      	ldr	r2, [pc, #404]	; (10002260 <__ieee754_log+0x2c8>)
100020ca:	4b66      	ldr	r3, [pc, #408]	; (10002264 <__ieee754_log+0x2cc>)
100020cc:	f001 f97e 	bl	100033cc <__aeabi_dadd>
100020d0:	1c22      	adds	r2, r4, #0
100020d2:	1c2b      	adds	r3, r5, #0
100020d4:	f002 f924 	bl	10004320 <__aeabi_dmul>
100020d8:	4a63      	ldr	r2, [pc, #396]	; (10002268 <__ieee754_log+0x2d0>)
100020da:	4b64      	ldr	r3, [pc, #400]	; (1000226c <__ieee754_log+0x2d4>)
100020dc:	f001 f976 	bl	100033cc <__aeabi_dadd>
100020e0:	1c22      	adds	r2, r4, #0
100020e2:	1c2b      	adds	r3, r5, #0
100020e4:	f002 f91c 	bl	10004320 <__aeabi_dmul>
100020e8:	4a61      	ldr	r2, [pc, #388]	; (10002270 <__ieee754_log+0x2d8>)
100020ea:	4b62      	ldr	r3, [pc, #392]	; (10002274 <__ieee754_log+0x2dc>)
100020ec:	f001 f96e 	bl	100033cc <__aeabi_dadd>
100020f0:	9a00      	ldr	r2, [sp, #0]
100020f2:	9b01      	ldr	r3, [sp, #4]
100020f4:	f002 f914 	bl	10004320 <__aeabi_dmul>
100020f8:	4a5f      	ldr	r2, [pc, #380]	; (10002278 <__ieee754_log+0x2e0>)
100020fa:	4b60      	ldr	r3, [pc, #384]	; (1000227c <__ieee754_log+0x2e4>)
100020fc:	9000      	str	r0, [sp, #0]
100020fe:	9101      	str	r1, [sp, #4]
10002100:	1c20      	adds	r0, r4, #0
10002102:	1c29      	adds	r1, r5, #0
10002104:	f002 f90c 	bl	10004320 <__aeabi_dmul>
10002108:	4a5d      	ldr	r2, [pc, #372]	; (10002280 <__ieee754_log+0x2e8>)
1000210a:	4b5e      	ldr	r3, [pc, #376]	; (10002284 <__ieee754_log+0x2ec>)
1000210c:	f001 f95e 	bl	100033cc <__aeabi_dadd>
10002110:	1c22      	adds	r2, r4, #0
10002112:	1c2b      	adds	r3, r5, #0
10002114:	f002 f904 	bl	10004320 <__aeabi_dmul>
10002118:	4a5b      	ldr	r2, [pc, #364]	; (10002288 <__ieee754_log+0x2f0>)
1000211a:	4b5c      	ldr	r3, [pc, #368]	; (1000228c <__ieee754_log+0x2f4>)
1000211c:	f001 f956 	bl	100033cc <__aeabi_dadd>
10002120:	1c22      	adds	r2, r4, #0
10002122:	1c2b      	adds	r3, r5, #0
10002124:	f002 f8fc 	bl	10004320 <__aeabi_dmul>
10002128:	1c02      	adds	r2, r0, #0
1000212a:	1c0b      	adds	r3, r1, #0
1000212c:	9800      	ldr	r0, [sp, #0]
1000212e:	9901      	ldr	r1, [sp, #4]
10002130:	f001 f94c 	bl	100033cc <__aeabi_dadd>
10002134:	1c0d      	adds	r5, r1, #0
10002136:	4962      	ldr	r1, [pc, #392]	; (100022c0 <__ieee754_log+0x328>)
10002138:	44c2      	add	sl, r8
1000213a:	1c04      	adds	r4, r0, #0
1000213c:	4640      	mov	r0, r8
1000213e:	1a0a      	subs	r2, r1, r0
10002140:	4653      	mov	r3, sl
10002142:	431a      	orrs	r2, r3
10002144:	2a00      	cmp	r2, #0
10002146:	dd54      	ble.n	100021f2 <__ieee754_log+0x25a>
10002148:	4a51      	ldr	r2, [pc, #324]	; (10002290 <__ieee754_log+0x2f8>)
1000214a:	4b52      	ldr	r3, [pc, #328]	; (10002294 <__ieee754_log+0x2fc>)
1000214c:	1c30      	adds	r0, r6, #0
1000214e:	1c39      	adds	r1, r7, #0
10002150:	f002 f8e6 	bl	10004320 <__aeabi_dmul>
10002154:	1c32      	adds	r2, r6, #0
10002156:	1c3b      	adds	r3, r7, #0
10002158:	f002 f8e2 	bl	10004320 <__aeabi_dmul>
1000215c:	9000      	str	r0, [sp, #0]
1000215e:	9101      	str	r1, [sp, #4]
10002160:	4648      	mov	r0, r9
10002162:	2800      	cmp	r0, #0
10002164:	d000      	beq.n	10002168 <__ieee754_log+0x1d0>
10002166:	e0ad      	b.n	100022c4 <__ieee754_log+0x32c>
10002168:	1c22      	adds	r2, r4, #0
1000216a:	1c2b      	adds	r3, r5, #0
1000216c:	9800      	ldr	r0, [sp, #0]
1000216e:	9901      	ldr	r1, [sp, #4]
10002170:	f001 f92c 	bl	100033cc <__aeabi_dadd>
10002174:	9a02      	ldr	r2, [sp, #8]
10002176:	9b03      	ldr	r3, [sp, #12]
10002178:	f002 f8d2 	bl	10004320 <__aeabi_dmul>
1000217c:	1c02      	adds	r2, r0, #0
1000217e:	1c0b      	adds	r3, r1, #0
10002180:	9800      	ldr	r0, [sp, #0]
10002182:	9901      	ldr	r1, [sp, #4]
10002184:	f002 fb3e 	bl	10004804 <__aeabi_dsub>
10002188:	1c02      	adds	r2, r0, #0
1000218a:	1c0b      	adds	r3, r1, #0
1000218c:	1c30      	adds	r0, r6, #0
1000218e:	1c39      	adds	r1, r7, #0
10002190:	f002 fb38 	bl	10004804 <__aeabi_dsub>
10002194:	e76d      	b.n	10002072 <__ieee754_log+0xda>
10002196:	4a28      	ldr	r2, [pc, #160]	; (10002238 <__ieee754_log+0x2a0>)
10002198:	4b28      	ldr	r3, [pc, #160]	; (1000223c <__ieee754_log+0x2a4>)
1000219a:	483f      	ldr	r0, [pc, #252]	; (10002298 <__ieee754_log+0x300>)
1000219c:	493f      	ldr	r1, [pc, #252]	; (1000229c <__ieee754_log+0x304>)
1000219e:	f001 fcc5 	bl	10003b2c <__aeabi_ddiv>
100021a2:	e766      	b.n	10002072 <__ieee754_log+0xda>
100021a4:	1c32      	adds	r2, r6, #0
100021a6:	1c3b      	adds	r3, r7, #0
100021a8:	1c30      	adds	r0, r6, #0
100021aa:	1c39      	adds	r1, r7, #0
100021ac:	f002 f8b8 	bl	10004320 <__aeabi_dmul>
100021b0:	4a3b      	ldr	r2, [pc, #236]	; (100022a0 <__ieee754_log+0x308>)
100021b2:	4b3c      	ldr	r3, [pc, #240]	; (100022a4 <__ieee754_log+0x30c>)
100021b4:	1c04      	adds	r4, r0, #0
100021b6:	1c0d      	adds	r5, r1, #0
100021b8:	1c30      	adds	r0, r6, #0
100021ba:	1c39      	adds	r1, r7, #0
100021bc:	f002 f8b0 	bl	10004320 <__aeabi_dmul>
100021c0:	1c02      	adds	r2, r0, #0
100021c2:	1c0b      	adds	r3, r1, #0
100021c4:	4832      	ldr	r0, [pc, #200]	; (10002290 <__ieee754_log+0x2f8>)
100021c6:	4933      	ldr	r1, [pc, #204]	; (10002294 <__ieee754_log+0x2fc>)
100021c8:	f002 fb1c 	bl	10004804 <__aeabi_dsub>
100021cc:	1c02      	adds	r2, r0, #0
100021ce:	1c0b      	adds	r3, r1, #0
100021d0:	1c20      	adds	r0, r4, #0
100021d2:	1c29      	adds	r1, r5, #0
100021d4:	f002 f8a4 	bl	10004320 <__aeabi_dmul>
100021d8:	464a      	mov	r2, r9
100021da:	1c04      	adds	r4, r0, #0
100021dc:	1c0d      	adds	r5, r1, #0
100021de:	2a00      	cmp	r2, #0
100021e0:	d000      	beq.n	100021e4 <__ieee754_log+0x24c>
100021e2:	e0ac      	b.n	1000233e <__ieee754_log+0x3a6>
100021e4:	1c30      	adds	r0, r6, #0
100021e6:	1c39      	adds	r1, r7, #0
100021e8:	1c22      	adds	r2, r4, #0
100021ea:	1c2b      	adds	r3, r5, #0
100021ec:	f002 fb0a 	bl	10004804 <__aeabi_dsub>
100021f0:	e73f      	b.n	10002072 <__ieee754_log+0xda>
100021f2:	4649      	mov	r1, r9
100021f4:	2900      	cmp	r1, #0
100021f6:	d100      	bne.n	100021fa <__ieee754_log+0x262>
100021f8:	e0c3      	b.n	10002382 <__ieee754_log+0x3ea>
100021fa:	4a11      	ldr	r2, [pc, #68]	; (10002240 <__ieee754_log+0x2a8>)
100021fc:	4b11      	ldr	r3, [pc, #68]	; (10002244 <__ieee754_log+0x2ac>)
100021fe:	9804      	ldr	r0, [sp, #16]
10002200:	9905      	ldr	r1, [sp, #20]
10002202:	f002 f88d 	bl	10004320 <__aeabi_dmul>
10002206:	1c22      	adds	r2, r4, #0
10002208:	9000      	str	r0, [sp, #0]
1000220a:	9101      	str	r1, [sp, #4]
1000220c:	1c2b      	adds	r3, r5, #0
1000220e:	1c30      	adds	r0, r6, #0
10002210:	1c39      	adds	r1, r7, #0
10002212:	f002 faf7 	bl	10004804 <__aeabi_dsub>
10002216:	9a02      	ldr	r2, [sp, #8]
10002218:	9b03      	ldr	r3, [sp, #12]
1000221a:	f002 f881 	bl	10004320 <__aeabi_dmul>
1000221e:	1c04      	adds	r4, r0, #0
10002220:	1c0d      	adds	r5, r1, #0
10002222:	9804      	ldr	r0, [sp, #16]
10002224:	9905      	ldr	r1, [sp, #20]
10002226:	e097      	b.n	10002358 <__ieee754_log+0x3c0>
10002228:	00000000 	.word	0x00000000
1000222c:	43500000 	.word	0x43500000
10002230:	00000000 	.word	0x00000000
10002234:	3ff00000 	.word	0x3ff00000
	...
10002240:	fee00000 	.word	0xfee00000
10002244:	3fe62e42 	.word	0x3fe62e42
10002248:	35793c76 	.word	0x35793c76
1000224c:	3dea39ef 	.word	0x3dea39ef
10002250:	00000000 	.word	0x00000000
10002254:	40000000 	.word	0x40000000
10002258:	df3e5244 	.word	0xdf3e5244
1000225c:	3fc2f112 	.word	0x3fc2f112
10002260:	96cb03de 	.word	0x96cb03de
10002264:	3fc74664 	.word	0x3fc74664
10002268:	94229359 	.word	0x94229359
1000226c:	3fd24924 	.word	0x3fd24924
10002270:	55555593 	.word	0x55555593
10002274:	3fe55555 	.word	0x3fe55555
10002278:	d078c69f 	.word	0xd078c69f
1000227c:	3fc39a09 	.word	0x3fc39a09
10002280:	1d8e78af 	.word	0x1d8e78af
10002284:	3fcc71c5 	.word	0x3fcc71c5
10002288:	9997fa04 	.word	0x9997fa04
1000228c:	3fd99999 	.word	0x3fd99999
10002290:	00000000 	.word	0x00000000
10002294:	3fe00000 	.word	0x3fe00000
10002298:	00000000 	.word	0x00000000
1000229c:	c3500000 	.word	0xc3500000
100022a0:	55555555 	.word	0x55555555
100022a4:	3fd55555 	.word	0x3fd55555
100022a8:	000fffff 	.word	0x000fffff
100022ac:	7fefffff 	.word	0x7fefffff
100022b0:	fffffc01 	.word	0xfffffc01
100022b4:	00095f64 	.word	0x00095f64
100022b8:	3ff00000 	.word	0x3ff00000
100022bc:	fff9eb86 	.word	0xfff9eb86
100022c0:	0006b851 	.word	0x0006b851
100022c4:	4b35      	ldr	r3, [pc, #212]	; (1000239c <__ieee754_log+0x404>)
100022c6:	4a34      	ldr	r2, [pc, #208]	; (10002398 <__ieee754_log+0x400>)
100022c8:	9804      	ldr	r0, [sp, #16]
100022ca:	9905      	ldr	r1, [sp, #20]
100022cc:	f002 f828 	bl	10004320 <__aeabi_dmul>
100022d0:	1c22      	adds	r2, r4, #0
100022d2:	9006      	str	r0, [sp, #24]
100022d4:	9107      	str	r1, [sp, #28]
100022d6:	9800      	ldr	r0, [sp, #0]
100022d8:	9901      	ldr	r1, [sp, #4]
100022da:	1c2b      	adds	r3, r5, #0
100022dc:	f001 f876 	bl	100033cc <__aeabi_dadd>
100022e0:	9a02      	ldr	r2, [sp, #8]
100022e2:	9b03      	ldr	r3, [sp, #12]
100022e4:	f002 f81c 	bl	10004320 <__aeabi_dmul>
100022e8:	4a2d      	ldr	r2, [pc, #180]	; (100023a0 <__ieee754_log+0x408>)
100022ea:	4b2e      	ldr	r3, [pc, #184]	; (100023a4 <__ieee754_log+0x40c>)
100022ec:	1c04      	adds	r4, r0, #0
100022ee:	1c0d      	adds	r5, r1, #0
100022f0:	9804      	ldr	r0, [sp, #16]
100022f2:	9905      	ldr	r1, [sp, #20]
100022f4:	f002 f814 	bl	10004320 <__aeabi_dmul>
100022f8:	1c02      	adds	r2, r0, #0
100022fa:	1c0b      	adds	r3, r1, #0
100022fc:	1c20      	adds	r0, r4, #0
100022fe:	1c29      	adds	r1, r5, #0
10002300:	f001 f864 	bl	100033cc <__aeabi_dadd>
10002304:	1c02      	adds	r2, r0, #0
10002306:	1c0b      	adds	r3, r1, #0
10002308:	9800      	ldr	r0, [sp, #0]
1000230a:	9901      	ldr	r1, [sp, #4]
1000230c:	f002 fa7a 	bl	10004804 <__aeabi_dsub>
10002310:	1c32      	adds	r2, r6, #0
10002312:	1c3b      	adds	r3, r7, #0
10002314:	f002 fa76 	bl	10004804 <__aeabi_dsub>
10002318:	1c02      	adds	r2, r0, #0
1000231a:	1c0b      	adds	r3, r1, #0
1000231c:	9806      	ldr	r0, [sp, #24]
1000231e:	9907      	ldr	r1, [sp, #28]
10002320:	f002 fa70 	bl	10004804 <__aeabi_dsub>
10002324:	e6a5      	b.n	10002072 <__ieee754_log+0xda>
10002326:	1c10      	adds	r0, r2, #0
10002328:	1c19      	adds	r1, r3, #0
1000232a:	f002 fa6b 	bl	10004804 <__aeabi_dsub>
1000232e:	4a1e      	ldr	r2, [pc, #120]	; (100023a8 <__ieee754_log+0x410>)
10002330:	4b1e      	ldr	r3, [pc, #120]	; (100023ac <__ieee754_log+0x414>)
10002332:	f001 fbfb 	bl	10003b2c <__aeabi_ddiv>
10002336:	e69c      	b.n	10002072 <__ieee754_log+0xda>
10002338:	481b      	ldr	r0, [pc, #108]	; (100023a8 <__ieee754_log+0x410>)
1000233a:	491c      	ldr	r1, [pc, #112]	; (100023ac <__ieee754_log+0x414>)
1000233c:	e699      	b.n	10002072 <__ieee754_log+0xda>
1000233e:	4648      	mov	r0, r9
10002340:	f002 fe16 	bl	10004f70 <__aeabi_i2d>
10002344:	4b15      	ldr	r3, [pc, #84]	; (1000239c <__ieee754_log+0x404>)
10002346:	4a14      	ldr	r2, [pc, #80]	; (10002398 <__ieee754_log+0x400>)
10002348:	9002      	str	r0, [sp, #8]
1000234a:	9103      	str	r1, [sp, #12]
1000234c:	f001 ffe8 	bl	10004320 <__aeabi_dmul>
10002350:	9000      	str	r0, [sp, #0]
10002352:	9101      	str	r1, [sp, #4]
10002354:	9802      	ldr	r0, [sp, #8]
10002356:	9903      	ldr	r1, [sp, #12]
10002358:	4a11      	ldr	r2, [pc, #68]	; (100023a0 <__ieee754_log+0x408>)
1000235a:	4b12      	ldr	r3, [pc, #72]	; (100023a4 <__ieee754_log+0x40c>)
1000235c:	f001 ffe0 	bl	10004320 <__aeabi_dmul>
10002360:	1c02      	adds	r2, r0, #0
10002362:	1c0b      	adds	r3, r1, #0
10002364:	1c20      	adds	r0, r4, #0
10002366:	1c29      	adds	r1, r5, #0
10002368:	f002 fa4c 	bl	10004804 <__aeabi_dsub>
1000236c:	1c32      	adds	r2, r6, #0
1000236e:	1c3b      	adds	r3, r7, #0
10002370:	f002 fa48 	bl	10004804 <__aeabi_dsub>
10002374:	1c02      	adds	r2, r0, #0
10002376:	1c0b      	adds	r3, r1, #0
10002378:	9800      	ldr	r0, [sp, #0]
1000237a:	9901      	ldr	r1, [sp, #4]
1000237c:	f002 fa42 	bl	10004804 <__aeabi_dsub>
10002380:	e677      	b.n	10002072 <__ieee754_log+0xda>
10002382:	1c22      	adds	r2, r4, #0
10002384:	1c2b      	adds	r3, r5, #0
10002386:	1c30      	adds	r0, r6, #0
10002388:	1c39      	adds	r1, r7, #0
1000238a:	f002 fa3b 	bl	10004804 <__aeabi_dsub>
1000238e:	9a02      	ldr	r2, [sp, #8]
10002390:	9b03      	ldr	r3, [sp, #12]
10002392:	f001 ffc5 	bl	10004320 <__aeabi_dmul>
10002396:	e6f7      	b.n	10002188 <__ieee754_log+0x1f0>
10002398:	fee00000 	.word	0xfee00000
1000239c:	3fe62e42 	.word	0x3fe62e42
100023a0:	35793c76 	.word	0x35793c76
100023a4:	3dea39ef 	.word	0x3dea39ef
	...

100023b0 <__aeabi_uidiv>:
100023b0:	2900      	cmp	r1, #0
100023b2:	d034      	beq.n	1000241e <.udivsi3_skip_div0_test+0x6a>

100023b4 <.udivsi3_skip_div0_test>:
100023b4:	2301      	movs	r3, #1
100023b6:	2200      	movs	r2, #0
100023b8:	b410      	push	{r4}
100023ba:	4288      	cmp	r0, r1
100023bc:	d32c      	bcc.n	10002418 <.udivsi3_skip_div0_test+0x64>
100023be:	2401      	movs	r4, #1
100023c0:	0724      	lsls	r4, r4, #28
100023c2:	42a1      	cmp	r1, r4
100023c4:	d204      	bcs.n	100023d0 <.udivsi3_skip_div0_test+0x1c>
100023c6:	4281      	cmp	r1, r0
100023c8:	d202      	bcs.n	100023d0 <.udivsi3_skip_div0_test+0x1c>
100023ca:	0109      	lsls	r1, r1, #4
100023cc:	011b      	lsls	r3, r3, #4
100023ce:	e7f8      	b.n	100023c2 <.udivsi3_skip_div0_test+0xe>
100023d0:	00e4      	lsls	r4, r4, #3
100023d2:	42a1      	cmp	r1, r4
100023d4:	d204      	bcs.n	100023e0 <.udivsi3_skip_div0_test+0x2c>
100023d6:	4281      	cmp	r1, r0
100023d8:	d202      	bcs.n	100023e0 <.udivsi3_skip_div0_test+0x2c>
100023da:	0049      	lsls	r1, r1, #1
100023dc:	005b      	lsls	r3, r3, #1
100023de:	e7f8      	b.n	100023d2 <.udivsi3_skip_div0_test+0x1e>
100023e0:	4288      	cmp	r0, r1
100023e2:	d301      	bcc.n	100023e8 <.udivsi3_skip_div0_test+0x34>
100023e4:	1a40      	subs	r0, r0, r1
100023e6:	431a      	orrs	r2, r3
100023e8:	084c      	lsrs	r4, r1, #1
100023ea:	42a0      	cmp	r0, r4
100023ec:	d302      	bcc.n	100023f4 <.udivsi3_skip_div0_test+0x40>
100023ee:	1b00      	subs	r0, r0, r4
100023f0:	085c      	lsrs	r4, r3, #1
100023f2:	4322      	orrs	r2, r4
100023f4:	088c      	lsrs	r4, r1, #2
100023f6:	42a0      	cmp	r0, r4
100023f8:	d302      	bcc.n	10002400 <.udivsi3_skip_div0_test+0x4c>
100023fa:	1b00      	subs	r0, r0, r4
100023fc:	089c      	lsrs	r4, r3, #2
100023fe:	4322      	orrs	r2, r4
10002400:	08cc      	lsrs	r4, r1, #3
10002402:	42a0      	cmp	r0, r4
10002404:	d302      	bcc.n	1000240c <.udivsi3_skip_div0_test+0x58>
10002406:	1b00      	subs	r0, r0, r4
10002408:	08dc      	lsrs	r4, r3, #3
1000240a:	4322      	orrs	r2, r4
1000240c:	2800      	cmp	r0, #0
1000240e:	d003      	beq.n	10002418 <.udivsi3_skip_div0_test+0x64>
10002410:	091b      	lsrs	r3, r3, #4
10002412:	d001      	beq.n	10002418 <.udivsi3_skip_div0_test+0x64>
10002414:	0909      	lsrs	r1, r1, #4
10002416:	e7e3      	b.n	100023e0 <.udivsi3_skip_div0_test+0x2c>
10002418:	1c10      	adds	r0, r2, #0
1000241a:	bc10      	pop	{r4}
1000241c:	4770      	bx	lr
1000241e:	2800      	cmp	r0, #0
10002420:	d001      	beq.n	10002426 <.udivsi3_skip_div0_test+0x72>
10002422:	2000      	movs	r0, #0
10002424:	43c0      	mvns	r0, r0
10002426:	b407      	push	{r0, r1, r2}
10002428:	4802      	ldr	r0, [pc, #8]	; (10002434 <.udivsi3_skip_div0_test+0x80>)
1000242a:	a102      	add	r1, pc, #8	; (adr r1, 10002434 <.udivsi3_skip_div0_test+0x80>)
1000242c:	1840      	adds	r0, r0, r1
1000242e:	9002      	str	r0, [sp, #8]
10002430:	bd03      	pop	{r0, r1, pc}
10002432:	46c0      	nop			; (mov r8, r8)
10002434:	00000019 	.word	0x00000019

10002438 <__aeabi_uidivmod>:
10002438:	2900      	cmp	r1, #0
1000243a:	d0f0      	beq.n	1000241e <.udivsi3_skip_div0_test+0x6a>
1000243c:	b503      	push	{r0, r1, lr}
1000243e:	f7ff ffb9 	bl	100023b4 <.udivsi3_skip_div0_test>
10002442:	bc0e      	pop	{r1, r2, r3}
10002444:	4342      	muls	r2, r0
10002446:	1a89      	subs	r1, r1, r2
10002448:	4718      	bx	r3
1000244a:	46c0      	nop			; (mov r8, r8)

1000244c <__aeabi_idiv0>:
1000244c:	4770      	bx	lr
1000244e:	46c0      	nop			; (mov r8, r8)

10002450 <__aeabi_cdrcmple>:
10002450:	4684      	mov	ip, r0
10002452:	1c10      	adds	r0, r2, #0
10002454:	4662      	mov	r2, ip
10002456:	468c      	mov	ip, r1
10002458:	1c19      	adds	r1, r3, #0
1000245a:	4663      	mov	r3, ip
1000245c:	e000      	b.n	10002460 <__aeabi_cdcmpeq>
1000245e:	46c0      	nop			; (mov r8, r8)

10002460 <__aeabi_cdcmpeq>:
10002460:	b51f      	push	{r0, r1, r2, r3, r4, lr}
10002462:	f001 fef1 	bl	10004248 <__ledf2>
10002466:	2800      	cmp	r0, #0
10002468:	d401      	bmi.n	1000246e <__aeabi_cdcmpeq+0xe>
1000246a:	2100      	movs	r1, #0
1000246c:	42c8      	cmn	r0, r1
1000246e:	bd1f      	pop	{r0, r1, r2, r3, r4, pc}

10002470 <__aeabi_dcmpeq>:
10002470:	b510      	push	{r4, lr}
10002472:	f001 fe37 	bl	100040e4 <__eqdf2>
10002476:	4240      	negs	r0, r0
10002478:	3001      	adds	r0, #1
1000247a:	bd10      	pop	{r4, pc}

1000247c <__aeabi_dcmplt>:
1000247c:	b510      	push	{r4, lr}
1000247e:	f001 fee3 	bl	10004248 <__ledf2>
10002482:	2800      	cmp	r0, #0
10002484:	db01      	blt.n	1000248a <__aeabi_dcmplt+0xe>
10002486:	2000      	movs	r0, #0
10002488:	bd10      	pop	{r4, pc}
1000248a:	2001      	movs	r0, #1
1000248c:	bd10      	pop	{r4, pc}
1000248e:	46c0      	nop			; (mov r8, r8)

10002490 <__aeabi_dcmple>:
10002490:	b510      	push	{r4, lr}
10002492:	f001 fed9 	bl	10004248 <__ledf2>
10002496:	2800      	cmp	r0, #0
10002498:	dd01      	ble.n	1000249e <__aeabi_dcmple+0xe>
1000249a:	2000      	movs	r0, #0
1000249c:	bd10      	pop	{r4, pc}
1000249e:	2001      	movs	r0, #1
100024a0:	bd10      	pop	{r4, pc}
100024a2:	46c0      	nop			; (mov r8, r8)

100024a4 <__aeabi_dcmpgt>:
100024a4:	b510      	push	{r4, lr}
100024a6:	f001 fe5b 	bl	10004160 <__gedf2>
100024aa:	2800      	cmp	r0, #0
100024ac:	dc01      	bgt.n	100024b2 <__aeabi_dcmpgt+0xe>
100024ae:	2000      	movs	r0, #0
100024b0:	bd10      	pop	{r4, pc}
100024b2:	2001      	movs	r0, #1
100024b4:	bd10      	pop	{r4, pc}
100024b6:	46c0      	nop			; (mov r8, r8)

100024b8 <__aeabi_dcmpge>:
100024b8:	b510      	push	{r4, lr}
100024ba:	f001 fe51 	bl	10004160 <__gedf2>
100024be:	2800      	cmp	r0, #0
100024c0:	da01      	bge.n	100024c6 <__aeabi_dcmpge+0xe>
100024c2:	2000      	movs	r0, #0
100024c4:	bd10      	pop	{r4, pc}
100024c6:	2001      	movs	r0, #1
100024c8:	bd10      	pop	{r4, pc}
100024ca:	46c0      	nop			; (mov r8, r8)

100024cc <__aeabi_cfrcmple>:
100024cc:	4684      	mov	ip, r0
100024ce:	1c08      	adds	r0, r1, #0
100024d0:	4661      	mov	r1, ip
100024d2:	e7ff      	b.n	100024d4 <__aeabi_cfcmpeq>

100024d4 <__aeabi_cfcmpeq>:
100024d4:	b51f      	push	{r0, r1, r2, r3, r4, lr}
100024d6:	f000 fbb3 	bl	10002c40 <__lesf2>
100024da:	2800      	cmp	r0, #0
100024dc:	d401      	bmi.n	100024e2 <__aeabi_cfcmpeq+0xe>
100024de:	2100      	movs	r1, #0
100024e0:	42c8      	cmn	r0, r1
100024e2:	bd1f      	pop	{r0, r1, r2, r3, r4, pc}

100024e4 <__aeabi_fcmpeq>:
100024e4:	b510      	push	{r4, lr}
100024e6:	f000 fb3b 	bl	10002b60 <__eqsf2>
100024ea:	4240      	negs	r0, r0
100024ec:	3001      	adds	r0, #1
100024ee:	bd10      	pop	{r4, pc}

100024f0 <__aeabi_fcmplt>:
100024f0:	b510      	push	{r4, lr}
100024f2:	f000 fba5 	bl	10002c40 <__lesf2>
100024f6:	2800      	cmp	r0, #0
100024f8:	db01      	blt.n	100024fe <__aeabi_fcmplt+0xe>
100024fa:	2000      	movs	r0, #0
100024fc:	bd10      	pop	{r4, pc}
100024fe:	2001      	movs	r0, #1
10002500:	bd10      	pop	{r4, pc}
10002502:	46c0      	nop			; (mov r8, r8)

10002504 <__aeabi_fcmple>:
10002504:	b510      	push	{r4, lr}
10002506:	f000 fb9b 	bl	10002c40 <__lesf2>
1000250a:	2800      	cmp	r0, #0
1000250c:	dd01      	ble.n	10002512 <__aeabi_fcmple+0xe>
1000250e:	2000      	movs	r0, #0
10002510:	bd10      	pop	{r4, pc}
10002512:	2001      	movs	r0, #1
10002514:	bd10      	pop	{r4, pc}
10002516:	46c0      	nop			; (mov r8, r8)

10002518 <__aeabi_fcmpgt>:
10002518:	b510      	push	{r4, lr}
1000251a:	f000 fb49 	bl	10002bb0 <__gesf2>
1000251e:	2800      	cmp	r0, #0
10002520:	dc01      	bgt.n	10002526 <__aeabi_fcmpgt+0xe>
10002522:	2000      	movs	r0, #0
10002524:	bd10      	pop	{r4, pc}
10002526:	2001      	movs	r0, #1
10002528:	bd10      	pop	{r4, pc}
1000252a:	46c0      	nop			; (mov r8, r8)

1000252c <__aeabi_fcmpge>:
1000252c:	b510      	push	{r4, lr}
1000252e:	f000 fb3f 	bl	10002bb0 <__gesf2>
10002532:	2800      	cmp	r0, #0
10002534:	da01      	bge.n	1000253a <__aeabi_fcmpge+0xe>
10002536:	2000      	movs	r0, #0
10002538:	bd10      	pop	{r4, pc}
1000253a:	2001      	movs	r0, #1
1000253c:	bd10      	pop	{r4, pc}
1000253e:	46c0      	nop			; (mov r8, r8)

10002540 <__aeabi_fadd>:
10002540:	b5f8      	push	{r3, r4, r5, r6, r7, lr}
10002542:	0243      	lsls	r3, r0, #9
10002544:	0042      	lsls	r2, r0, #1
10002546:	024f      	lsls	r7, r1, #9
10002548:	004c      	lsls	r4, r1, #1
1000254a:	0fc0      	lsrs	r0, r0, #31
1000254c:	099b      	lsrs	r3, r3, #6
1000254e:	0e12      	lsrs	r2, r2, #24
10002550:	1c06      	adds	r6, r0, #0
10002552:	469c      	mov	ip, r3
10002554:	0e24      	lsrs	r4, r4, #24
10002556:	0fc9      	lsrs	r1, r1, #31
10002558:	09bf      	lsrs	r7, r7, #6
1000255a:	4288      	cmp	r0, r1
1000255c:	d057      	beq.n	1000260e <__aeabi_fadd+0xce>
1000255e:	1b15      	subs	r5, r2, r4
10002560:	2d00      	cmp	r5, #0
10002562:	dc00      	bgt.n	10002566 <__aeabi_fadd+0x26>
10002564:	e07e      	b.n	10002664 <__aeabi_fadd+0x124>
10002566:	2c00      	cmp	r4, #0
10002568:	d141      	bne.n	100025ee <__aeabi_fadd+0xae>
1000256a:	2f00      	cmp	r7, #0
1000256c:	d064      	beq.n	10002638 <__aeabi_fadd+0xf8>
1000256e:	3d01      	subs	r5, #1
10002570:	2d00      	cmp	r5, #0
10002572:	d000      	beq.n	10002576 <__aeabi_fadd+0x36>
10002574:	e0ab      	b.n	100026ce <__aeabi_fadd+0x18e>
10002576:	1bdb      	subs	r3, r3, r7
10002578:	1c14      	adds	r4, r2, #0
1000257a:	1c06      	adds	r6, r0, #0
1000257c:	0159      	lsls	r1, r3, #5
1000257e:	d544      	bpl.n	1000260a <__aeabi_fadd+0xca>
10002580:	019a      	lsls	r2, r3, #6
10002582:	0995      	lsrs	r5, r2, #6
10002584:	1c28      	adds	r0, r5, #0
10002586:	f002 fe23 	bl	100051d0 <__clzsi2>
1000258a:	3805      	subs	r0, #5
1000258c:	4085      	lsls	r5, r0
1000258e:	4284      	cmp	r4, r0
10002590:	dd00      	ble.n	10002594 <__aeabi_fadd+0x54>
10002592:	e079      	b.n	10002688 <__aeabi_fadd+0x148>
10002594:	1b00      	subs	r0, r0, r4
10002596:	241f      	movs	r4, #31
10002598:	1c2b      	adds	r3, r5, #0
1000259a:	1c41      	adds	r1, r0, #1
1000259c:	1a22      	subs	r2, r4, r0
1000259e:	40cb      	lsrs	r3, r1
100025a0:	4095      	lsls	r5, r2
100025a2:	1c1f      	adds	r7, r3, #0
100025a4:	1c2b      	adds	r3, r5, #0
100025a6:	1e5d      	subs	r5, r3, #1
100025a8:	41ab      	sbcs	r3, r5
100025aa:	433b      	orrs	r3, r7
100025ac:	2501      	movs	r5, #1
100025ae:	2400      	movs	r4, #0
100025b0:	200f      	movs	r0, #15
100025b2:	4018      	ands	r0, r3
100025b4:	2804      	cmp	r0, #4
100025b6:	d000      	beq.n	100025ba <__aeabi_fadd+0x7a>
100025b8:	3304      	adds	r3, #4
100025ba:	2180      	movs	r1, #128	; 0x80
100025bc:	04cf      	lsls	r7, r1, #19
100025be:	2201      	movs	r2, #1
100025c0:	401f      	ands	r7, r3
100025c2:	4016      	ands	r6, r2
100025c4:	2f00      	cmp	r7, #0
100025c6:	d005      	beq.n	100025d4 <__aeabi_fadd+0x94>
100025c8:	2dff      	cmp	r5, #255	; 0xff
100025ca:	d05a      	beq.n	10002682 <__aeabi_fadd+0x142>
100025cc:	4cb3      	ldr	r4, [pc, #716]	; (1000289c <__aeabi_fadd+0x35c>)
100025ce:	4023      	ands	r3, r4
100025d0:	1c2c      	adds	r4, r5, #0
100025d2:	3501      	adds	r5, #1
100025d4:	b2ed      	uxtb	r5, r5
100025d6:	08da      	lsrs	r2, r3, #3
100025d8:	2d01      	cmp	r5, #1
100025da:	dd3b      	ble.n	10002654 <__aeabi_fadd+0x114>
100025dc:	0253      	lsls	r3, r2, #9
100025de:	0a5a      	lsrs	r2, r3, #9
100025e0:	b2e4      	uxtb	r4, r4
100025e2:	05e4      	lsls	r4, r4, #23
100025e4:	4322      	orrs	r2, r4
100025e6:	07f6      	lsls	r6, r6, #31
100025e8:	1c10      	adds	r0, r2, #0
100025ea:	4330      	orrs	r0, r6
100025ec:	bdf8      	pop	{r3, r4, r5, r6, r7, pc}
100025ee:	2aff      	cmp	r2, #255	; 0xff
100025f0:	d02b      	beq.n	1000264a <__aeabi_fadd+0x10a>
100025f2:	2180      	movs	r1, #128	; 0x80
100025f4:	04cc      	lsls	r4, r1, #19
100025f6:	4327      	orrs	r7, r4
100025f8:	2301      	movs	r3, #1
100025fa:	2d1b      	cmp	r5, #27
100025fc:	dd49      	ble.n	10002692 <__aeabi_fadd+0x152>
100025fe:	4667      	mov	r7, ip
10002600:	1afb      	subs	r3, r7, r3
10002602:	1c14      	adds	r4, r2, #0
10002604:	1c06      	adds	r6, r0, #0
10002606:	0159      	lsls	r1, r3, #5
10002608:	d4ba      	bmi.n	10002580 <__aeabi_fadd+0x40>
1000260a:	1c65      	adds	r5, r4, #1
1000260c:	e7d0      	b.n	100025b0 <__aeabi_fadd+0x70>
1000260e:	1b15      	subs	r5, r2, r4
10002610:	2d00      	cmp	r5, #0
10002612:	dd4f      	ble.n	100026b4 <__aeabi_fadd+0x174>
10002614:	2c00      	cmp	r4, #0
10002616:	d013      	beq.n	10002640 <__aeabi_fadd+0x100>
10002618:	2aff      	cmp	r2, #255	; 0xff
1000261a:	d05a      	beq.n	100026d2 <__aeabi_fadd+0x192>
1000261c:	2480      	movs	r4, #128	; 0x80
1000261e:	04e1      	lsls	r1, r4, #19
10002620:	430f      	orrs	r7, r1
10002622:	2301      	movs	r3, #1
10002624:	2d1b      	cmp	r5, #27
10002626:	dc00      	bgt.n	1000262a <__aeabi_fadd+0xea>
10002628:	e0b0      	b.n	1000278c <__aeabi_fadd+0x24c>
1000262a:	4463      	add	r3, ip
1000262c:	1c14      	adds	r4, r2, #0
1000262e:	0159      	lsls	r1, r3, #5
10002630:	d455      	bmi.n	100026de <__aeabi_fadd+0x19e>
10002632:	1c65      	adds	r5, r4, #1
10002634:	1c06      	adds	r6, r0, #0
10002636:	e7bb      	b.n	100025b0 <__aeabi_fadd+0x70>
10002638:	1c55      	adds	r5, r2, #1
1000263a:	1c14      	adds	r4, r2, #0
1000263c:	1c06      	adds	r6, r0, #0
1000263e:	e7b7      	b.n	100025b0 <__aeabi_fadd+0x70>
10002640:	2f00      	cmp	r7, #0
10002642:	d17c      	bne.n	1000273e <__aeabi_fadd+0x1fe>
10002644:	1c55      	adds	r5, r2, #1
10002646:	1c14      	adds	r4, r2, #0
10002648:	e7b2      	b.n	100025b0 <__aeabi_fadd+0x70>
1000264a:	2780      	movs	r7, #128	; 0x80
1000264c:	4663      	mov	r3, ip
1000264e:	007d      	lsls	r5, r7, #1
10002650:	24ff      	movs	r4, #255	; 0xff
10002652:	e7ad      	b.n	100025b0 <__aeabi_fadd+0x70>
10002654:	2a00      	cmp	r2, #0
10002656:	d0c3      	beq.n	100025e0 <__aeabi_fadd+0xa0>
10002658:	2c00      	cmp	r4, #0
1000265a:	d028      	beq.n	100026ae <__aeabi_fadd+0x16e>
1000265c:	2080      	movs	r0, #128	; 0x80
1000265e:	03c1      	lsls	r1, r0, #15
10002660:	430a      	orrs	r2, r1
10002662:	e7bb      	b.n	100025dc <__aeabi_fadd+0x9c>
10002664:	2d00      	cmp	r5, #0
10002666:	d147      	bne.n	100026f8 <__aeabi_fadd+0x1b8>
10002668:	1c50      	adds	r0, r2, #1
1000266a:	b2c3      	uxtb	r3, r0
1000266c:	2b01      	cmp	r3, #1
1000266e:	dc00      	bgt.n	10002672 <__aeabi_fadd+0x132>
10002670:	e096      	b.n	100027a0 <__aeabi_fadd+0x260>
10002672:	4664      	mov	r4, ip
10002674:	1be5      	subs	r5, r4, r7
10002676:	0168      	lsls	r0, r5, #5
10002678:	d558      	bpl.n	1000272c <__aeabi_fadd+0x1ec>
1000267a:	1b3d      	subs	r5, r7, r4
1000267c:	1c0e      	adds	r6, r1, #0
1000267e:	1c14      	adds	r4, r2, #0
10002680:	e780      	b.n	10002584 <__aeabi_fadd+0x44>
10002682:	24ff      	movs	r4, #255	; 0xff
10002684:	2200      	movs	r2, #0
10002686:	e7ac      	b.n	100025e2 <__aeabi_fadd+0xa2>
10002688:	4b84      	ldr	r3, [pc, #528]	; (1000289c <__aeabi_fadd+0x35c>)
1000268a:	1a24      	subs	r4, r4, r0
1000268c:	402b      	ands	r3, r5
1000268e:	1c65      	adds	r5, r4, #1
10002690:	e78e      	b.n	100025b0 <__aeabi_fadd+0x70>
10002692:	1c3e      	adds	r6, r7, #0
10002694:	2120      	movs	r1, #32
10002696:	40ee      	lsrs	r6, r5
10002698:	1b4d      	subs	r5, r1, r5
1000269a:	40af      	lsls	r7, r5
1000269c:	1c3b      	adds	r3, r7, #0
1000269e:	1e5f      	subs	r7, r3, #1
100026a0:	41bb      	sbcs	r3, r7
100026a2:	4333      	orrs	r3, r6
100026a4:	4667      	mov	r7, ip
100026a6:	1afb      	subs	r3, r7, r3
100026a8:	1c14      	adds	r4, r2, #0
100026aa:	1c06      	adds	r6, r0, #0
100026ac:	e7ab      	b.n	10002606 <__aeabi_fadd+0xc6>
100026ae:	0257      	lsls	r7, r2, #9
100026b0:	0a7a      	lsrs	r2, r7, #9
100026b2:	e796      	b.n	100025e2 <__aeabi_fadd+0xa2>
100026b4:	2d00      	cmp	r5, #0
100026b6:	d17f      	bne.n	100027b8 <__aeabi_fadd+0x278>
100026b8:	1c54      	adds	r4, r2, #1
100026ba:	b2e1      	uxtb	r1, r4
100026bc:	2901      	cmp	r1, #1
100026be:	dd53      	ble.n	10002768 <__aeabi_fadd+0x228>
100026c0:	2cff      	cmp	r4, #255	; 0xff
100026c2:	d100      	bne.n	100026c6 <__aeabi_fadd+0x186>
100026c4:	e09b      	b.n	100027fe <__aeabi_fadd+0x2be>
100026c6:	18fb      	adds	r3, r7, r3
100026c8:	085b      	lsrs	r3, r3, #1
100026ca:	1c95      	adds	r5, r2, #2
100026cc:	e770      	b.n	100025b0 <__aeabi_fadd+0x70>
100026ce:	2aff      	cmp	r2, #255	; 0xff
100026d0:	d192      	bne.n	100025f8 <__aeabi_fadd+0xb8>
100026d2:	1c06      	adds	r6, r0, #0
100026d4:	2080      	movs	r0, #128	; 0x80
100026d6:	4663      	mov	r3, ip
100026d8:	0045      	lsls	r5, r0, #1
100026da:	24ff      	movs	r4, #255	; 0xff
100026dc:	e768      	b.n	100025b0 <__aeabi_fadd+0x70>
100026de:	1c67      	adds	r7, r4, #1
100026e0:	2fff      	cmp	r7, #255	; 0xff
100026e2:	d03c      	beq.n	1000275e <__aeabi_fadd+0x21e>
100026e4:	4a6d      	ldr	r2, [pc, #436]	; (1000289c <__aeabi_fadd+0x35c>)
100026e6:	2601      	movs	r6, #1
100026e8:	401e      	ands	r6, r3
100026ea:	4013      	ands	r3, r2
100026ec:	085b      	lsrs	r3, r3, #1
100026ee:	4333      	orrs	r3, r6
100026f0:	1ca5      	adds	r5, r4, #2
100026f2:	1c06      	adds	r6, r0, #0
100026f4:	1c3c      	adds	r4, r7, #0
100026f6:	e75b      	b.n	100025b0 <__aeabi_fadd+0x70>
100026f8:	4268      	negs	r0, r5
100026fa:	2a00      	cmp	r2, #0
100026fc:	d025      	beq.n	1000274a <__aeabi_fadd+0x20a>
100026fe:	2cff      	cmp	r4, #255	; 0xff
10002700:	d070      	beq.n	100027e4 <__aeabi_fadd+0x2a4>
10002702:	2280      	movs	r2, #128	; 0x80
10002704:	04d6      	lsls	r6, r2, #19
10002706:	1c1d      	adds	r5, r3, #0
10002708:	4335      	orrs	r5, r6
1000270a:	46ac      	mov	ip, r5
1000270c:	2601      	movs	r6, #1
1000270e:	281b      	cmp	r0, #27
10002710:	dc09      	bgt.n	10002726 <__aeabi_fadd+0x1e6>
10002712:	4662      	mov	r2, ip
10002714:	2520      	movs	r5, #32
10002716:	40c2      	lsrs	r2, r0
10002718:	1a2b      	subs	r3, r5, r0
1000271a:	4660      	mov	r0, ip
1000271c:	4098      	lsls	r0, r3
1000271e:	1c06      	adds	r6, r0, #0
10002720:	1e70      	subs	r0, r6, #1
10002722:	4186      	sbcs	r6, r0
10002724:	4316      	orrs	r6, r2
10002726:	1bbb      	subs	r3, r7, r6
10002728:	1c0e      	adds	r6, r1, #0
1000272a:	e727      	b.n	1000257c <__aeabi_fadd+0x3c>
1000272c:	1c14      	adds	r4, r2, #0
1000272e:	2d00      	cmp	r5, #0
10002730:	d000      	beq.n	10002734 <__aeabi_fadd+0x1f4>
10002732:	e727      	b.n	10002584 <__aeabi_fadd+0x44>
10002734:	2600      	movs	r6, #0
10002736:	2501      	movs	r5, #1
10002738:	2304      	movs	r3, #4
1000273a:	2400      	movs	r4, #0
1000273c:	e74a      	b.n	100025d4 <__aeabi_fadd+0x94>
1000273e:	3d01      	subs	r5, #1
10002740:	2d00      	cmp	r5, #0
10002742:	d108      	bne.n	10002756 <__aeabi_fadd+0x216>
10002744:	18fb      	adds	r3, r7, r3
10002746:	1c14      	adds	r4, r2, #0
10002748:	e771      	b.n	1000262e <__aeabi_fadd+0xee>
1000274a:	2b00      	cmp	r3, #0
1000274c:	d150      	bne.n	100027f0 <__aeabi_fadd+0x2b0>
1000274e:	1c65      	adds	r5, r4, #1
10002750:	1c3b      	adds	r3, r7, #0
10002752:	1c0e      	adds	r6, r1, #0
10002754:	e72c      	b.n	100025b0 <__aeabi_fadd+0x70>
10002756:	2aff      	cmp	r2, #255	; 0xff
10002758:	d000      	beq.n	1000275c <__aeabi_fadd+0x21c>
1000275a:	e762      	b.n	10002622 <__aeabi_fadd+0xe2>
1000275c:	e7b9      	b.n	100026d2 <__aeabi_fadd+0x192>
1000275e:	2380      	movs	r3, #128	; 0x80
10002760:	005d      	lsls	r5, r3, #1
10002762:	24ff      	movs	r4, #255	; 0xff
10002764:	2304      	movs	r3, #4
10002766:	e735      	b.n	100025d4 <__aeabi_fadd+0x94>
10002768:	2a00      	cmp	r2, #0
1000276a:	d17c      	bne.n	10002866 <__aeabi_fadd+0x326>
1000276c:	2b00      	cmp	r3, #0
1000276e:	d100      	bne.n	10002772 <__aeabi_fadd+0x232>
10002770:	e0a1      	b.n	100028b6 <__aeabi_fadd+0x376>
10002772:	2f00      	cmp	r7, #0
10002774:	d100      	bne.n	10002778 <__aeabi_fadd+0x238>
10002776:	e0af      	b.n	100028d8 <__aeabi_fadd+0x398>
10002778:	18fb      	adds	r3, r7, r3
1000277a:	0159      	lsls	r1, r3, #5
1000277c:	d400      	bmi.n	10002780 <__aeabi_fadd+0x240>
1000277e:	e0b0      	b.n	100028e2 <__aeabi_fadd+0x3a2>
10002780:	4e46      	ldr	r6, [pc, #280]	; (1000289c <__aeabi_fadd+0x35c>)
10002782:	2502      	movs	r5, #2
10002784:	4033      	ands	r3, r6
10002786:	2401      	movs	r4, #1
10002788:	1c06      	adds	r6, r0, #0
1000278a:	e711      	b.n	100025b0 <__aeabi_fadd+0x70>
1000278c:	1c3c      	adds	r4, r7, #0
1000278e:	2320      	movs	r3, #32
10002790:	40ec      	lsrs	r4, r5
10002792:	1b5d      	subs	r5, r3, r5
10002794:	40af      	lsls	r7, r5
10002796:	1c3b      	adds	r3, r7, #0
10002798:	1e5f      	subs	r7, r3, #1
1000279a:	41bb      	sbcs	r3, r7
1000279c:	4323      	orrs	r3, r4
1000279e:	e744      	b.n	1000262a <__aeabi_fadd+0xea>
100027a0:	2a00      	cmp	r2, #0
100027a2:	d112      	bne.n	100027ca <__aeabi_fadd+0x28a>
100027a4:	4665      	mov	r5, ip
100027a6:	2d00      	cmp	r5, #0
100027a8:	d141      	bne.n	1000282e <__aeabi_fadd+0x2ee>
100027aa:	2f00      	cmp	r7, #0
100027ac:	d0c2      	beq.n	10002734 <__aeabi_fadd+0x1f4>
100027ae:	1c3b      	adds	r3, r7, #0
100027b0:	1c0e      	adds	r6, r1, #0
100027b2:	2501      	movs	r5, #1
100027b4:	2400      	movs	r4, #0
100027b6:	e6fb      	b.n	100025b0 <__aeabi_fadd+0x70>
100027b8:	426d      	negs	r5, r5
100027ba:	2a00      	cmp	r2, #0
100027bc:	d123      	bne.n	10002806 <__aeabi_fadd+0x2c6>
100027be:	2b00      	cmp	r3, #0
100027c0:	d166      	bne.n	10002890 <__aeabi_fadd+0x350>
100027c2:	1c65      	adds	r5, r4, #1
100027c4:	1c3b      	adds	r3, r7, #0
100027c6:	1c06      	adds	r6, r0, #0
100027c8:	e6f2      	b.n	100025b0 <__aeabi_fadd+0x70>
100027ca:	4662      	mov	r2, ip
100027cc:	2a00      	cmp	r2, #0
100027ce:	d138      	bne.n	10002842 <__aeabi_fadd+0x302>
100027d0:	2f00      	cmp	r7, #0
100027d2:	d107      	bne.n	100027e4 <__aeabi_fadd+0x2a4>
100027d4:	2280      	movs	r2, #128	; 0x80
100027d6:	2600      	movs	r6, #0
100027d8:	0055      	lsls	r5, r2, #1
100027da:	4b31      	ldr	r3, [pc, #196]	; (100028a0 <__aeabi_fadd+0x360>)
100027dc:	24ff      	movs	r4, #255	; 0xff
100027de:	e6f9      	b.n	100025d4 <__aeabi_fadd+0x94>
100027e0:	2cff      	cmp	r4, #255	; 0xff
100027e2:	d193      	bne.n	1000270c <__aeabi_fadd+0x1cc>
100027e4:	1c3b      	adds	r3, r7, #0
100027e6:	2780      	movs	r7, #128	; 0x80
100027e8:	1c0e      	adds	r6, r1, #0
100027ea:	007d      	lsls	r5, r7, #1
100027ec:	24ff      	movs	r4, #255	; 0xff
100027ee:	e6df      	b.n	100025b0 <__aeabi_fadd+0x70>
100027f0:	3801      	subs	r0, #1
100027f2:	2800      	cmp	r0, #0
100027f4:	d1f4      	bne.n	100027e0 <__aeabi_fadd+0x2a0>
100027f6:	4666      	mov	r6, ip
100027f8:	1bbb      	subs	r3, r7, r6
100027fa:	1c0e      	adds	r6, r1, #0
100027fc:	e6be      	b.n	1000257c <__aeabi_fadd+0x3c>
100027fe:	2780      	movs	r7, #128	; 0x80
10002800:	007d      	lsls	r5, r7, #1
10002802:	2304      	movs	r3, #4
10002804:	e6e6      	b.n	100025d4 <__aeabi_fadd+0x94>
10002806:	2cff      	cmp	r4, #255	; 0xff
10002808:	d05c      	beq.n	100028c4 <__aeabi_fadd+0x384>
1000280a:	2280      	movs	r2, #128	; 0x80
1000280c:	04d1      	lsls	r1, r2, #19
1000280e:	430b      	orrs	r3, r1
10002810:	469c      	mov	ip, r3
10002812:	2301      	movs	r3, #1
10002814:	2d1b      	cmp	r5, #27
10002816:	dc08      	bgt.n	1000282a <__aeabi_fadd+0x2ea>
10002818:	2120      	movs	r1, #32
1000281a:	4662      	mov	r2, ip
1000281c:	40ea      	lsrs	r2, r5
1000281e:	4663      	mov	r3, ip
10002820:	1b4d      	subs	r5, r1, r5
10002822:	40ab      	lsls	r3, r5
10002824:	1e59      	subs	r1, r3, #1
10002826:	418b      	sbcs	r3, r1
10002828:	4313      	orrs	r3, r2
1000282a:	19db      	adds	r3, r3, r7
1000282c:	e6ff      	b.n	1000262e <__aeabi_fadd+0xee>
1000282e:	2f00      	cmp	r7, #0
10002830:	d038      	beq.n	100028a4 <__aeabi_fadd+0x364>
10002832:	1beb      	subs	r3, r5, r7
10002834:	015a      	lsls	r2, r3, #5
10002836:	d54b      	bpl.n	100028d0 <__aeabi_fadd+0x390>
10002838:	1b7b      	subs	r3, r7, r5
1000283a:	1c0e      	adds	r6, r1, #0
1000283c:	2501      	movs	r5, #1
1000283e:	2400      	movs	r4, #0
10002840:	e6b6      	b.n	100025b0 <__aeabi_fadd+0x70>
10002842:	2f00      	cmp	r7, #0
10002844:	d100      	bne.n	10002848 <__aeabi_fadd+0x308>
10002846:	e700      	b.n	1000264a <__aeabi_fadd+0x10a>
10002848:	2080      	movs	r0, #128	; 0x80
1000284a:	08d3      	lsrs	r3, r2, #3
1000284c:	03c4      	lsls	r4, r0, #15
1000284e:	4223      	tst	r3, r4
10002850:	d004      	beq.n	1000285c <__aeabi_fadd+0x31c>
10002852:	08ff      	lsrs	r7, r7, #3
10002854:	4227      	tst	r7, r4
10002856:	d101      	bne.n	1000285c <__aeabi_fadd+0x31c>
10002858:	1c3b      	adds	r3, r7, #0
1000285a:	1c0e      	adds	r6, r1, #0
1000285c:	2180      	movs	r1, #128	; 0x80
1000285e:	00db      	lsls	r3, r3, #3
10002860:	004d      	lsls	r5, r1, #1
10002862:	24ff      	movs	r4, #255	; 0xff
10002864:	e6a4      	b.n	100025b0 <__aeabi_fadd+0x70>
10002866:	2b00      	cmp	r3, #0
10002868:	d020      	beq.n	100028ac <__aeabi_fadd+0x36c>
1000286a:	2f00      	cmp	r7, #0
1000286c:	d100      	bne.n	10002870 <__aeabi_fadd+0x330>
1000286e:	e6ec      	b.n	1000264a <__aeabi_fadd+0x10a>
10002870:	2280      	movs	r2, #128	; 0x80
10002872:	08de      	lsrs	r6, r3, #3
10002874:	03d5      	lsls	r5, r2, #15
10002876:	1c31      	adds	r1, r6, #0
10002878:	422e      	tst	r6, r5
1000287a:	d003      	beq.n	10002884 <__aeabi_fadd+0x344>
1000287c:	08f9      	lsrs	r1, r7, #3
1000287e:	4229      	tst	r1, r5
10002880:	d000      	beq.n	10002884 <__aeabi_fadd+0x344>
10002882:	1c31      	adds	r1, r6, #0
10002884:	1c06      	adds	r6, r0, #0
10002886:	2080      	movs	r0, #128	; 0x80
10002888:	00cb      	lsls	r3, r1, #3
1000288a:	0045      	lsls	r5, r0, #1
1000288c:	24ff      	movs	r4, #255	; 0xff
1000288e:	e68f      	b.n	100025b0 <__aeabi_fadd+0x70>
10002890:	3d01      	subs	r5, #1
10002892:	2d00      	cmp	r5, #0
10002894:	d114      	bne.n	100028c0 <__aeabi_fadd+0x380>
10002896:	18fb      	adds	r3, r7, r3
10002898:	e6c9      	b.n	1000262e <__aeabi_fadd+0xee>
1000289a:	46c0      	nop			; (mov r8, r8)
1000289c:	fbffffff 	.word	0xfbffffff
100028a0:	03fffffc 	.word	0x03fffffc
100028a4:	4663      	mov	r3, ip
100028a6:	2501      	movs	r5, #1
100028a8:	2400      	movs	r4, #0
100028aa:	e681      	b.n	100025b0 <__aeabi_fadd+0x70>
100028ac:	2480      	movs	r4, #128	; 0x80
100028ae:	0065      	lsls	r5, r4, #1
100028b0:	1c3b      	adds	r3, r7, #0
100028b2:	24ff      	movs	r4, #255	; 0xff
100028b4:	e67c      	b.n	100025b0 <__aeabi_fadd+0x70>
100028b6:	1c3b      	adds	r3, r7, #0
100028b8:	1c06      	adds	r6, r0, #0
100028ba:	2501      	movs	r5, #1
100028bc:	2400      	movs	r4, #0
100028be:	e677      	b.n	100025b0 <__aeabi_fadd+0x70>
100028c0:	2cff      	cmp	r4, #255	; 0xff
100028c2:	d1a6      	bne.n	10002812 <__aeabi_fadd+0x2d2>
100028c4:	1c3b      	adds	r3, r7, #0
100028c6:	2780      	movs	r7, #128	; 0x80
100028c8:	1c06      	adds	r6, r0, #0
100028ca:	007d      	lsls	r5, r7, #1
100028cc:	24ff      	movs	r4, #255	; 0xff
100028ce:	e66f      	b.n	100025b0 <__aeabi_fadd+0x70>
100028d0:	2b00      	cmp	r3, #0
100028d2:	d100      	bne.n	100028d6 <__aeabi_fadd+0x396>
100028d4:	e72e      	b.n	10002734 <__aeabi_fadd+0x1f4>
100028d6:	e669      	b.n	100025ac <__aeabi_fadd+0x6c>
100028d8:	4663      	mov	r3, ip
100028da:	1c06      	adds	r6, r0, #0
100028dc:	2501      	movs	r5, #1
100028de:	2400      	movs	r4, #0
100028e0:	e666      	b.n	100025b0 <__aeabi_fadd+0x70>
100028e2:	1c06      	adds	r6, r0, #0
100028e4:	2501      	movs	r5, #1
100028e6:	2400      	movs	r4, #0
100028e8:	e662      	b.n	100025b0 <__aeabi_fadd+0x70>
100028ea:	46c0      	nop			; (mov r8, r8)

100028ec <__aeabi_fdiv>:
100028ec:	b5f0      	push	{r4, r5, r6, r7, lr}
100028ee:	465f      	mov	r7, fp
100028f0:	4656      	mov	r6, sl
100028f2:	464d      	mov	r5, r9
100028f4:	4644      	mov	r4, r8
100028f6:	b4f0      	push	{r4, r5, r6, r7}
100028f8:	0245      	lsls	r5, r0, #9
100028fa:	0044      	lsls	r4, r0, #1
100028fc:	b083      	sub	sp, #12
100028fe:	1c0e      	adds	r6, r1, #0
10002900:	0a6d      	lsrs	r5, r5, #9
10002902:	0e24      	lsrs	r4, r4, #24
10002904:	0fc7      	lsrs	r7, r0, #31
10002906:	2c00      	cmp	r4, #0
10002908:	d107      	bne.n	1000291a <__aeabi_fdiv+0x2e>
1000290a:	2d00      	cmp	r5, #0
1000290c:	d000      	beq.n	10002910 <__aeabi_fdiv+0x24>
1000290e:	e091      	b.n	10002a34 <__aeabi_fdiv+0x148>
10002910:	2104      	movs	r1, #4
10002912:	2201      	movs	r2, #1
10002914:	4688      	mov	r8, r1
10002916:	4692      	mov	sl, r2
10002918:	e009      	b.n	1000292e <__aeabi_fdiv+0x42>
1000291a:	2cff      	cmp	r4, #255	; 0xff
1000291c:	d055      	beq.n	100029ca <__aeabi_fdiv+0xde>
1000291e:	2380      	movs	r3, #128	; 0x80
10002920:	0418      	lsls	r0, r3, #16
10002922:	2100      	movs	r1, #0
10002924:	4305      	orrs	r5, r0
10002926:	00ed      	lsls	r5, r5, #3
10002928:	3c7f      	subs	r4, #127	; 0x7f
1000292a:	4688      	mov	r8, r1
1000292c:	468a      	mov	sl, r1
1000292e:	1c33      	adds	r3, r6, #0
10002930:	0058      	lsls	r0, r3, #1
10002932:	0276      	lsls	r6, r6, #9
10002934:	0fd9      	lsrs	r1, r3, #31
10002936:	0a76      	lsrs	r6, r6, #9
10002938:	0e00      	lsrs	r0, r0, #24
1000293a:	468b      	mov	fp, r1
1000293c:	d14c      	bne.n	100029d8 <__aeabi_fdiv+0xec>
1000293e:	2201      	movs	r2, #1
10002940:	4694      	mov	ip, r2
10002942:	2e00      	cmp	r6, #0
10002944:	d000      	beq.n	10002948 <__aeabi_fdiv+0x5c>
10002946:	e081      	b.n	10002a4c <__aeabi_fdiv+0x160>
10002948:	465b      	mov	r3, fp
1000294a:	407b      	eors	r3, r7
1000294c:	4662      	mov	r2, ip
1000294e:	4641      	mov	r1, r8
10002950:	9301      	str	r3, [sp, #4]
10002952:	430a      	orrs	r2, r1
10002954:	2a0f      	cmp	r2, #15
10002956:	d950      	bls.n	100029fa <__aeabi_fdiv+0x10e>
10002958:	1a20      	subs	r0, r4, r0
1000295a:	0169      	lsls	r1, r5, #5
1000295c:	4681      	mov	r9, r0
1000295e:	0175      	lsls	r5, r6, #5
10002960:	42a9      	cmp	r1, r5
10002962:	d300      	bcc.n	10002966 <__aeabi_fdiv+0x7a>
10002964:	e0b3      	b.n	10002ace <__aeabi_fdiv+0x1e2>
10002966:	2201      	movs	r2, #1
10002968:	4253      	negs	r3, r2
1000296a:	4499      	add	r9, r3
1000296c:	241b      	movs	r4, #27
1000296e:	2600      	movs	r6, #0
10002970:	2701      	movs	r7, #1
10002972:	1e62      	subs	r2, r4, #1
10002974:	1c38      	adds	r0, r7, #0
10002976:	4010      	ands	r0, r2
10002978:	004b      	lsls	r3, r1, #1
1000297a:	0076      	lsls	r6, r6, #1
1000297c:	2900      	cmp	r1, #0
1000297e:	da00      	bge.n	10002982 <__aeabi_fdiv+0x96>
10002980:	e0a9      	b.n	10002ad6 <__aeabi_fdiv+0x1ea>
10002982:	429d      	cmp	r5, r3
10002984:	d800      	bhi.n	10002988 <__aeabi_fdiv+0x9c>
10002986:	e0a6      	b.n	10002ad6 <__aeabi_fdiv+0x1ea>
10002988:	3c01      	subs	r4, #1
1000298a:	2c00      	cmp	r4, #0
1000298c:	dc00      	bgt.n	10002990 <__aeabi_fdiv+0xa4>
1000298e:	e0ab      	b.n	10002ae8 <__aeabi_fdiv+0x1fc>
10002990:	2800      	cmp	r0, #0
10002992:	d00c      	beq.n	100029ae <__aeabi_fdiv+0xc2>
10002994:	1c19      	adds	r1, r3, #0
10002996:	0076      	lsls	r6, r6, #1
10002998:	005b      	lsls	r3, r3, #1
1000299a:	2900      	cmp	r1, #0
1000299c:	db01      	blt.n	100029a2 <__aeabi_fdiv+0xb6>
1000299e:	429d      	cmp	r5, r3
100029a0:	d801      	bhi.n	100029a6 <__aeabi_fdiv+0xba>
100029a2:	1b5b      	subs	r3, r3, r5
100029a4:	433e      	orrs	r6, r7
100029a6:	3c01      	subs	r4, #1
100029a8:	2c00      	cmp	r4, #0
100029aa:	dc00      	bgt.n	100029ae <__aeabi_fdiv+0xc2>
100029ac:	e09c      	b.n	10002ae8 <__aeabi_fdiv+0x1fc>
100029ae:	0059      	lsls	r1, r3, #1
100029b0:	0072      	lsls	r2, r6, #1
100029b2:	2b00      	cmp	r3, #0
100029b4:	db01      	blt.n	100029ba <__aeabi_fdiv+0xce>
100029b6:	428d      	cmp	r5, r1
100029b8:	d801      	bhi.n	100029be <__aeabi_fdiv+0xd2>
100029ba:	1b49      	subs	r1, r1, r5
100029bc:	433a      	orrs	r2, r7
100029be:	3c01      	subs	r4, #1
100029c0:	004b      	lsls	r3, r1, #1
100029c2:	0056      	lsls	r6, r2, #1
100029c4:	2900      	cmp	r1, #0
100029c6:	daea      	bge.n	1000299e <__aeabi_fdiv+0xb2>
100029c8:	e7eb      	b.n	100029a2 <__aeabi_fdiv+0xb6>
100029ca:	2d00      	cmp	r5, #0
100029cc:	d12d      	bne.n	10002a2a <__aeabi_fdiv+0x13e>
100029ce:	2008      	movs	r0, #8
100029d0:	2102      	movs	r1, #2
100029d2:	4680      	mov	r8, r0
100029d4:	468a      	mov	sl, r1
100029d6:	e7aa      	b.n	1000292e <__aeabi_fdiv+0x42>
100029d8:	28ff      	cmp	r0, #255	; 0xff
100029da:	d020      	beq.n	10002a1e <__aeabi_fdiv+0x132>
100029dc:	2280      	movs	r2, #128	; 0x80
100029de:	0413      	lsls	r3, r2, #16
100029e0:	2100      	movs	r1, #0
100029e2:	431e      	orrs	r6, r3
100029e4:	468c      	mov	ip, r1
100029e6:	465b      	mov	r3, fp
100029e8:	407b      	eors	r3, r7
100029ea:	4662      	mov	r2, ip
100029ec:	4641      	mov	r1, r8
100029ee:	00f6      	lsls	r6, r6, #3
100029f0:	387f      	subs	r0, #127	; 0x7f
100029f2:	9301      	str	r3, [sp, #4]
100029f4:	430a      	orrs	r2, r1
100029f6:	2a0f      	cmp	r2, #15
100029f8:	d8ae      	bhi.n	10002958 <__aeabi_fdiv+0x6c>
100029fa:	4956      	ldr	r1, [pc, #344]	; (10002b54 <__aeabi_fdiv+0x268>)
100029fc:	0092      	lsls	r2, r2, #2
100029fe:	588a      	ldr	r2, [r1, r2]
10002a00:	4697      	mov	pc, r2
10002a02:	9b01      	ldr	r3, [sp, #4]
10002a04:	26ff      	movs	r6, #255	; 0xff
10002a06:	2500      	movs	r5, #0
10002a08:	05f0      	lsls	r0, r6, #23
10002a0a:	4328      	orrs	r0, r5
10002a0c:	07de      	lsls	r6, r3, #31
10002a0e:	4330      	orrs	r0, r6
10002a10:	b003      	add	sp, #12
10002a12:	bc3c      	pop	{r2, r3, r4, r5}
10002a14:	4690      	mov	r8, r2
10002a16:	4699      	mov	r9, r3
10002a18:	46a2      	mov	sl, r4
10002a1a:	46ab      	mov	fp, r5
10002a1c:	bdf0      	pop	{r4, r5, r6, r7, pc}
10002a1e:	1c33      	adds	r3, r6, #0
10002a20:	1e5a      	subs	r2, r3, #1
10002a22:	4193      	sbcs	r3, r2
10002a24:	3302      	adds	r3, #2
10002a26:	469c      	mov	ip, r3
10002a28:	e78e      	b.n	10002948 <__aeabi_fdiv+0x5c>
10002a2a:	220c      	movs	r2, #12
10002a2c:	2303      	movs	r3, #3
10002a2e:	4690      	mov	r8, r2
10002a30:	469a      	mov	sl, r3
10002a32:	e77c      	b.n	1000292e <__aeabi_fdiv+0x42>
10002a34:	1c28      	adds	r0, r5, #0
10002a36:	f002 fbcb 	bl	100051d0 <__clzsi2>
10002a3a:	2276      	movs	r2, #118	; 0x76
10002a3c:	1f44      	subs	r4, r0, #5
10002a3e:	4253      	negs	r3, r2
10002a40:	40a5      	lsls	r5, r4
10002a42:	1a1c      	subs	r4, r3, r0
10002a44:	2000      	movs	r0, #0
10002a46:	4680      	mov	r8, r0
10002a48:	4682      	mov	sl, r0
10002a4a:	e770      	b.n	1000292e <__aeabi_fdiv+0x42>
10002a4c:	1c30      	adds	r0, r6, #0
10002a4e:	f002 fbbf 	bl	100051d0 <__clzsi2>
10002a52:	2376      	movs	r3, #118	; 0x76
10002a54:	1f41      	subs	r1, r0, #5
10002a56:	408e      	lsls	r6, r1
10002a58:	425a      	negs	r2, r3
10002a5a:	2100      	movs	r1, #0
10002a5c:	1a10      	subs	r0, r2, r0
10002a5e:	468c      	mov	ip, r1
10002a60:	e772      	b.n	10002948 <__aeabi_fdiv+0x5c>
10002a62:	2300      	movs	r3, #0
10002a64:	4d3c      	ldr	r5, [pc, #240]	; (10002b58 <__aeabi_fdiv+0x26c>)
10002a66:	26ff      	movs	r6, #255	; 0xff
10002a68:	e7ce      	b.n	10002a08 <__aeabi_fdiv+0x11c>
10002a6a:	465f      	mov	r7, fp
10002a6c:	1c35      	adds	r5, r6, #0
10002a6e:	9701      	str	r7, [sp, #4]
10002a70:	4663      	mov	r3, ip
10002a72:	2b02      	cmp	r3, #2
10002a74:	d0c5      	beq.n	10002a02 <__aeabi_fdiv+0x116>
10002a76:	2b03      	cmp	r3, #3
10002a78:	d063      	beq.n	10002b42 <__aeabi_fdiv+0x256>
10002a7a:	2b01      	cmp	r3, #1
10002a7c:	d043      	beq.n	10002b06 <__aeabi_fdiv+0x21a>
10002a7e:	4649      	mov	r1, r9
10002a80:	317f      	adds	r1, #127	; 0x7f
10002a82:	2900      	cmp	r1, #0
10002a84:	dd35      	ble.n	10002af2 <__aeabi_fdiv+0x206>
10002a86:	270f      	movs	r7, #15
10002a88:	402f      	ands	r7, r5
10002a8a:	2f04      	cmp	r7, #4
10002a8c:	d000      	beq.n	10002a90 <__aeabi_fdiv+0x1a4>
10002a8e:	3504      	adds	r5, #4
10002a90:	012b      	lsls	r3, r5, #4
10002a92:	d503      	bpl.n	10002a9c <__aeabi_fdiv+0x1b0>
10002a94:	4a31      	ldr	r2, [pc, #196]	; (10002b5c <__aeabi_fdiv+0x270>)
10002a96:	4649      	mov	r1, r9
10002a98:	4015      	ands	r5, r2
10002a9a:	3180      	adds	r1, #128	; 0x80
10002a9c:	29fe      	cmp	r1, #254	; 0xfe
10002a9e:	dcb0      	bgt.n	10002a02 <__aeabi_fdiv+0x116>
10002aa0:	01a8      	lsls	r0, r5, #6
10002aa2:	0a45      	lsrs	r5, r0, #9
10002aa4:	b2ce      	uxtb	r6, r1
10002aa6:	9b01      	ldr	r3, [sp, #4]
10002aa8:	e7ae      	b.n	10002a08 <__aeabi_fdiv+0x11c>
10002aaa:	2600      	movs	r6, #0
10002aac:	2500      	movs	r5, #0
10002aae:	e7ab      	b.n	10002a08 <__aeabi_fdiv+0x11c>
10002ab0:	2080      	movs	r0, #128	; 0x80
10002ab2:	03c1      	lsls	r1, r0, #15
10002ab4:	420d      	tst	r5, r1
10002ab6:	d011      	beq.n	10002adc <__aeabi_fdiv+0x1f0>
10002ab8:	420e      	tst	r6, r1
10002aba:	d10f      	bne.n	10002adc <__aeabi_fdiv+0x1f0>
10002abc:	430e      	orrs	r6, r1
10002abe:	0273      	lsls	r3, r6, #9
10002ac0:	0a5d      	lsrs	r5, r3, #9
10002ac2:	26ff      	movs	r6, #255	; 0xff
10002ac4:	465b      	mov	r3, fp
10002ac6:	e79f      	b.n	10002a08 <__aeabi_fdiv+0x11c>
10002ac8:	9701      	str	r7, [sp, #4]
10002aca:	4653      	mov	r3, sl
10002acc:	e7d1      	b.n	10002a72 <__aeabi_fdiv+0x186>
10002ace:	1b49      	subs	r1, r1, r5
10002ad0:	241a      	movs	r4, #26
10002ad2:	2601      	movs	r6, #1
10002ad4:	e74c      	b.n	10002970 <__aeabi_fdiv+0x84>
10002ad6:	1b5b      	subs	r3, r3, r5
10002ad8:	433e      	orrs	r6, r7
10002ada:	e755      	b.n	10002988 <__aeabi_fdiv+0x9c>
10002adc:	430d      	orrs	r5, r1
10002ade:	026a      	lsls	r2, r5, #9
10002ae0:	0a55      	lsrs	r5, r2, #9
10002ae2:	1c3b      	adds	r3, r7, #0
10002ae4:	26ff      	movs	r6, #255	; 0xff
10002ae6:	e78f      	b.n	10002a08 <__aeabi_fdiv+0x11c>
10002ae8:	1c1d      	adds	r5, r3, #0
10002aea:	1e6b      	subs	r3, r5, #1
10002aec:	419d      	sbcs	r5, r3
10002aee:	4335      	orrs	r5, r6
10002af0:	e7c5      	b.n	10002a7e <__aeabi_fdiv+0x192>
10002af2:	247e      	movs	r4, #126	; 0x7e
10002af4:	4267      	negs	r7, r4
10002af6:	464a      	mov	r2, r9
10002af8:	1ab9      	subs	r1, r7, r2
10002afa:	291b      	cmp	r1, #27
10002afc:	dd08      	ble.n	10002b10 <__aeabi_fdiv+0x224>
10002afe:	9b01      	ldr	r3, [sp, #4]
10002b00:	2600      	movs	r6, #0
10002b02:	2500      	movs	r5, #0
10002b04:	e780      	b.n	10002a08 <__aeabi_fdiv+0x11c>
10002b06:	9d01      	ldr	r5, [sp, #4]
10002b08:	2600      	movs	r6, #0
10002b0a:	402b      	ands	r3, r5
10002b0c:	2500      	movs	r5, #0
10002b0e:	e77b      	b.n	10002a08 <__aeabi_fdiv+0x11c>
10002b10:	464e      	mov	r6, r9
10002b12:	369e      	adds	r6, #158	; 0x9e
10002b14:	1c28      	adds	r0, r5, #0
10002b16:	40b5      	lsls	r5, r6
10002b18:	1c2b      	adds	r3, r5, #0
10002b1a:	1e5d      	subs	r5, r3, #1
10002b1c:	41ab      	sbcs	r3, r5
10002b1e:	40c8      	lsrs	r0, r1
10002b20:	4303      	orrs	r3, r0
10002b22:	250f      	movs	r5, #15
10002b24:	401d      	ands	r5, r3
10002b26:	2d04      	cmp	r5, #4
10002b28:	d000      	beq.n	10002b2c <__aeabi_fdiv+0x240>
10002b2a:	3304      	adds	r3, #4
10002b2c:	015a      	lsls	r2, r3, #5
10002b2e:	d503      	bpl.n	10002b38 <__aeabi_fdiv+0x24c>
10002b30:	9b01      	ldr	r3, [sp, #4]
10002b32:	2601      	movs	r6, #1
10002b34:	2500      	movs	r5, #0
10002b36:	e767      	b.n	10002a08 <__aeabi_fdiv+0x11c>
10002b38:	019c      	lsls	r4, r3, #6
10002b3a:	0a65      	lsrs	r5, r4, #9
10002b3c:	9b01      	ldr	r3, [sp, #4]
10002b3e:	2600      	movs	r6, #0
10002b40:	e762      	b.n	10002a08 <__aeabi_fdiv+0x11c>
10002b42:	2780      	movs	r7, #128	; 0x80
10002b44:	03fc      	lsls	r4, r7, #15
10002b46:	4325      	orrs	r5, r4
10002b48:	026e      	lsls	r6, r5, #9
10002b4a:	0a75      	lsrs	r5, r6, #9
10002b4c:	9b01      	ldr	r3, [sp, #4]
10002b4e:	26ff      	movs	r6, #255	; 0xff
10002b50:	e75a      	b.n	10002a08 <__aeabi_fdiv+0x11c>
10002b52:	46c0      	nop			; (mov r8, r8)
10002b54:	100053c0 	.word	0x100053c0
10002b58:	007fffff 	.word	0x007fffff
10002b5c:	f7ffffff 	.word	0xf7ffffff

10002b60 <__eqsf2>:
10002b60:	0243      	lsls	r3, r0, #9
10002b62:	0042      	lsls	r2, r0, #1
10002b64:	b570      	push	{r4, r5, r6, lr}
10002b66:	0a5c      	lsrs	r4, r3, #9
10002b68:	0fc6      	lsrs	r6, r0, #31
10002b6a:	0e13      	lsrs	r3, r2, #24
10002b6c:	0248      	lsls	r0, r1, #9
10002b6e:	004a      	lsls	r2, r1, #1
10002b70:	0a45      	lsrs	r5, r0, #9
10002b72:	0e12      	lsrs	r2, r2, #24
10002b74:	0fc9      	lsrs	r1, r1, #31
10002b76:	2bff      	cmp	r3, #255	; 0xff
10002b78:	d005      	beq.n	10002b86 <__eqsf2+0x26>
10002b7a:	2aff      	cmp	r2, #255	; 0xff
10002b7c:	d008      	beq.n	10002b90 <__eqsf2+0x30>
10002b7e:	2001      	movs	r0, #1
10002b80:	4293      	cmp	r3, r2
10002b82:	d00b      	beq.n	10002b9c <__eqsf2+0x3c>
10002b84:	bd70      	pop	{r4, r5, r6, pc}
10002b86:	2001      	movs	r0, #1
10002b88:	2c00      	cmp	r4, #0
10002b8a:	d1fb      	bne.n	10002b84 <__eqsf2+0x24>
10002b8c:	2aff      	cmp	r2, #255	; 0xff
10002b8e:	d1f6      	bne.n	10002b7e <__eqsf2+0x1e>
10002b90:	2001      	movs	r0, #1
10002b92:	2d00      	cmp	r5, #0
10002b94:	d1f6      	bne.n	10002b84 <__eqsf2+0x24>
10002b96:	2001      	movs	r0, #1
10002b98:	4293      	cmp	r3, r2
10002b9a:	d1f3      	bne.n	10002b84 <__eqsf2+0x24>
10002b9c:	42ac      	cmp	r4, r5
10002b9e:	d1f1      	bne.n	10002b84 <__eqsf2+0x24>
10002ba0:	428e      	cmp	r6, r1
10002ba2:	d003      	beq.n	10002bac <__eqsf2+0x4c>
10002ba4:	2b00      	cmp	r3, #0
10002ba6:	d1ed      	bne.n	10002b84 <__eqsf2+0x24>
10002ba8:	2c00      	cmp	r4, #0
10002baa:	d1eb      	bne.n	10002b84 <__eqsf2+0x24>
10002bac:	2000      	movs	r0, #0
10002bae:	e7e9      	b.n	10002b84 <__eqsf2+0x24>

10002bb0 <__gesf2>:
10002bb0:	b5f0      	push	{r4, r5, r6, r7, lr}
10002bb2:	0243      	lsls	r3, r0, #9
10002bb4:	0042      	lsls	r2, r0, #1
10002bb6:	004f      	lsls	r7, r1, #1
10002bb8:	0fc6      	lsrs	r6, r0, #31
10002bba:	0248      	lsls	r0, r1, #9
10002bbc:	0a5c      	lsrs	r4, r3, #9
10002bbe:	0a45      	lsrs	r5, r0, #9
10002bc0:	0e13      	lsrs	r3, r2, #24
10002bc2:	0fc9      	lsrs	r1, r1, #31
10002bc4:	0e3a      	lsrs	r2, r7, #24
10002bc6:	2bff      	cmp	r3, #255	; 0xff
10002bc8:	d026      	beq.n	10002c18 <__gesf2+0x68>
10002bca:	2aff      	cmp	r2, #255	; 0xff
10002bcc:	d029      	beq.n	10002c22 <__gesf2+0x72>
10002bce:	2b00      	cmp	r3, #0
10002bd0:	d10c      	bne.n	10002bec <__gesf2+0x3c>
10002bd2:	4260      	negs	r0, r4
10002bd4:	4160      	adcs	r0, r4
10002bd6:	4684      	mov	ip, r0
10002bd8:	2a00      	cmp	r2, #0
10002bda:	d00a      	beq.n	10002bf2 <__gesf2+0x42>
10002bdc:	2800      	cmp	r0, #0
10002bde:	d116      	bne.n	10002c0e <__gesf2+0x5e>
10002be0:	428e      	cmp	r6, r1
10002be2:	d021      	beq.n	10002c28 <__gesf2+0x78>
10002be4:	2e00      	cmp	r6, #0
10002be6:	d114      	bne.n	10002c12 <__gesf2+0x62>
10002be8:	2001      	movs	r0, #1
10002bea:	e014      	b.n	10002c16 <__gesf2+0x66>
10002bec:	2a00      	cmp	r2, #0
10002bee:	d1f7      	bne.n	10002be0 <__gesf2+0x30>
10002bf0:	4694      	mov	ip, r2
10002bf2:	426f      	negs	r7, r5
10002bf4:	416f      	adcs	r7, r5
10002bf6:	4660      	mov	r0, ip
10002bf8:	2800      	cmp	r0, #0
10002bfa:	d105      	bne.n	10002c08 <__gesf2+0x58>
10002bfc:	2f00      	cmp	r7, #0
10002bfe:	d0ef      	beq.n	10002be0 <__gesf2+0x30>
10002c00:	2001      	movs	r0, #1
10002c02:	2e00      	cmp	r6, #0
10002c04:	d007      	beq.n	10002c16 <__gesf2+0x66>
10002c06:	e004      	b.n	10002c12 <__gesf2+0x62>
10002c08:	2000      	movs	r0, #0
10002c0a:	2f00      	cmp	r7, #0
10002c0c:	d103      	bne.n	10002c16 <__gesf2+0x66>
10002c0e:	2900      	cmp	r1, #0
10002c10:	d1ea      	bne.n	10002be8 <__gesf2+0x38>
10002c12:	2101      	movs	r1, #1
10002c14:	4248      	negs	r0, r1
10002c16:	bdf0      	pop	{r4, r5, r6, r7, pc}
10002c18:	2c00      	cmp	r4, #0
10002c1a:	d0d6      	beq.n	10002bca <__gesf2+0x1a>
10002c1c:	2202      	movs	r2, #2
10002c1e:	4250      	negs	r0, r2
10002c20:	e7f9      	b.n	10002c16 <__gesf2+0x66>
10002c22:	2d00      	cmp	r5, #0
10002c24:	d0d3      	beq.n	10002bce <__gesf2+0x1e>
10002c26:	e7f9      	b.n	10002c1c <__gesf2+0x6c>
10002c28:	4293      	cmp	r3, r2
10002c2a:	dcdb      	bgt.n	10002be4 <__gesf2+0x34>
10002c2c:	db04      	blt.n	10002c38 <__gesf2+0x88>
10002c2e:	42ac      	cmp	r4, r5
10002c30:	d8d8      	bhi.n	10002be4 <__gesf2+0x34>
10002c32:	2000      	movs	r0, #0
10002c34:	42ac      	cmp	r4, r5
10002c36:	d2ee      	bcs.n	10002c16 <__gesf2+0x66>
10002c38:	2e00      	cmp	r6, #0
10002c3a:	d0ea      	beq.n	10002c12 <__gesf2+0x62>
10002c3c:	2001      	movs	r0, #1
10002c3e:	e7ea      	b.n	10002c16 <__gesf2+0x66>

10002c40 <__lesf2>:
10002c40:	b5f0      	push	{r4, r5, r6, r7, lr}
10002c42:	0243      	lsls	r3, r0, #9
10002c44:	0042      	lsls	r2, r0, #1
10002c46:	004f      	lsls	r7, r1, #1
10002c48:	0fc6      	lsrs	r6, r0, #31
10002c4a:	0248      	lsls	r0, r1, #9
10002c4c:	0a5c      	lsrs	r4, r3, #9
10002c4e:	0a45      	lsrs	r5, r0, #9
10002c50:	0e13      	lsrs	r3, r2, #24
10002c52:	0fc9      	lsrs	r1, r1, #31
10002c54:	0e3a      	lsrs	r2, r7, #24
10002c56:	2bff      	cmp	r3, #255	; 0xff
10002c58:	d026      	beq.n	10002ca8 <__lesf2+0x68>
10002c5a:	2aff      	cmp	r2, #255	; 0xff
10002c5c:	d028      	beq.n	10002cb0 <__lesf2+0x70>
10002c5e:	2b00      	cmp	r3, #0
10002c60:	d00f      	beq.n	10002c82 <__lesf2+0x42>
10002c62:	2a00      	cmp	r2, #0
10002c64:	d114      	bne.n	10002c90 <__lesf2+0x50>
10002c66:	4694      	mov	ip, r2
10002c68:	426f      	negs	r7, r5
10002c6a:	416f      	adcs	r7, r5
10002c6c:	4660      	mov	r0, ip
10002c6e:	2800      	cmp	r0, #0
10002c70:	d014      	beq.n	10002c9c <__lesf2+0x5c>
10002c72:	2000      	movs	r0, #0
10002c74:	2f00      	cmp	r7, #0
10002c76:	d103      	bne.n	10002c80 <__lesf2+0x40>
10002c78:	2900      	cmp	r1, #0
10002c7a:	d10d      	bne.n	10002c98 <__lesf2+0x58>
10002c7c:	2101      	movs	r1, #1
10002c7e:	4248      	negs	r0, r1
10002c80:	bdf0      	pop	{r4, r5, r6, r7, pc}
10002c82:	4260      	negs	r0, r4
10002c84:	4160      	adcs	r0, r4
10002c86:	4684      	mov	ip, r0
10002c88:	2a00      	cmp	r2, #0
10002c8a:	d0ed      	beq.n	10002c68 <__lesf2+0x28>
10002c8c:	2800      	cmp	r0, #0
10002c8e:	d1f3      	bne.n	10002c78 <__lesf2+0x38>
10002c90:	428e      	cmp	r6, r1
10002c92:	d011      	beq.n	10002cb8 <__lesf2+0x78>
10002c94:	2e00      	cmp	r6, #0
10002c96:	d1f1      	bne.n	10002c7c <__lesf2+0x3c>
10002c98:	2001      	movs	r0, #1
10002c9a:	e7f1      	b.n	10002c80 <__lesf2+0x40>
10002c9c:	2f00      	cmp	r7, #0
10002c9e:	d0f7      	beq.n	10002c90 <__lesf2+0x50>
10002ca0:	2001      	movs	r0, #1
10002ca2:	2e00      	cmp	r6, #0
10002ca4:	d0ec      	beq.n	10002c80 <__lesf2+0x40>
10002ca6:	e7e9      	b.n	10002c7c <__lesf2+0x3c>
10002ca8:	2002      	movs	r0, #2
10002caa:	2c00      	cmp	r4, #0
10002cac:	d1e8      	bne.n	10002c80 <__lesf2+0x40>
10002cae:	e7d4      	b.n	10002c5a <__lesf2+0x1a>
10002cb0:	2002      	movs	r0, #2
10002cb2:	2d00      	cmp	r5, #0
10002cb4:	d1e4      	bne.n	10002c80 <__lesf2+0x40>
10002cb6:	e7d2      	b.n	10002c5e <__lesf2+0x1e>
10002cb8:	4293      	cmp	r3, r2
10002cba:	dceb      	bgt.n	10002c94 <__lesf2+0x54>
10002cbc:	db04      	blt.n	10002cc8 <__lesf2+0x88>
10002cbe:	42ac      	cmp	r4, r5
10002cc0:	d8e8      	bhi.n	10002c94 <__lesf2+0x54>
10002cc2:	2000      	movs	r0, #0
10002cc4:	42ac      	cmp	r4, r5
10002cc6:	d2db      	bcs.n	10002c80 <__lesf2+0x40>
10002cc8:	2e00      	cmp	r6, #0
10002cca:	d0d7      	beq.n	10002c7c <__lesf2+0x3c>
10002ccc:	2001      	movs	r0, #1
10002cce:	e7d7      	b.n	10002c80 <__lesf2+0x40>

10002cd0 <__aeabi_fmul>:
10002cd0:	b5f0      	push	{r4, r5, r6, r7, lr}
10002cd2:	465f      	mov	r7, fp
10002cd4:	4656      	mov	r6, sl
10002cd6:	464d      	mov	r5, r9
10002cd8:	4644      	mov	r4, r8
10002cda:	b4f0      	push	{r4, r5, r6, r7}
10002cdc:	0245      	lsls	r5, r0, #9
10002cde:	0046      	lsls	r6, r0, #1
10002ce0:	b083      	sub	sp, #12
10002ce2:	1c0f      	adds	r7, r1, #0
10002ce4:	0a6d      	lsrs	r5, r5, #9
10002ce6:	0e36      	lsrs	r6, r6, #24
10002ce8:	0fc4      	lsrs	r4, r0, #31
10002cea:	2e00      	cmp	r6, #0
10002cec:	d106      	bne.n	10002cfc <__aeabi_fmul+0x2c>
10002cee:	2d00      	cmp	r5, #0
10002cf0:	d170      	bne.n	10002dd4 <__aeabi_fmul+0x104>
10002cf2:	2104      	movs	r1, #4
10002cf4:	2201      	movs	r2, #1
10002cf6:	4688      	mov	r8, r1
10002cf8:	4692      	mov	sl, r2
10002cfa:	e009      	b.n	10002d10 <__aeabi_fmul+0x40>
10002cfc:	2eff      	cmp	r6, #255	; 0xff
10002cfe:	d043      	beq.n	10002d88 <__aeabi_fmul+0xb8>
10002d00:	2380      	movs	r3, #128	; 0x80
10002d02:	0418      	lsls	r0, r3, #16
10002d04:	2100      	movs	r1, #0
10002d06:	4305      	orrs	r5, r0
10002d08:	00ed      	lsls	r5, r5, #3
10002d0a:	3e7f      	subs	r6, #127	; 0x7f
10002d0c:	4688      	mov	r8, r1
10002d0e:	468a      	mov	sl, r1
10002d10:	1c38      	adds	r0, r7, #0
10002d12:	0043      	lsls	r3, r0, #1
10002d14:	027f      	lsls	r7, r7, #9
10002d16:	0fc1      	lsrs	r1, r0, #31
10002d18:	0a7f      	lsrs	r7, r7, #9
10002d1a:	0e1b      	lsrs	r3, r3, #24
10002d1c:	468b      	mov	fp, r1
10002d1e:	d13a      	bne.n	10002d96 <__aeabi_fmul+0xc6>
10002d20:	2101      	movs	r1, #1
10002d22:	2f00      	cmp	r7, #0
10002d24:	d162      	bne.n	10002dec <__aeabi_fmul+0x11c>
10002d26:	4658      	mov	r0, fp
10002d28:	4060      	eors	r0, r4
10002d2a:	4642      	mov	r2, r8
10002d2c:	9001      	str	r0, [sp, #4]
10002d2e:	430a      	orrs	r2, r1
10002d30:	2a0f      	cmp	r2, #15
10002d32:	d93f      	bls.n	10002db4 <__aeabi_fmul+0xe4>
10002d34:	042c      	lsls	r4, r5, #16
10002d36:	18f0      	adds	r0, r6, r3
10002d38:	0c26      	lsrs	r6, r4, #16
10002d3a:	043b      	lsls	r3, r7, #16
10002d3c:	0c1a      	lsrs	r2, r3, #16
10002d3e:	1c31      	adds	r1, r6, #0
10002d40:	4351      	muls	r1, r2
10002d42:	0c3f      	lsrs	r7, r7, #16
10002d44:	0c2d      	lsrs	r5, r5, #16
10002d46:	437e      	muls	r6, r7
10002d48:	436a      	muls	r2, r5
10002d4a:	4681      	mov	r9, r0
10002d4c:	0c08      	lsrs	r0, r1, #16
10002d4e:	1836      	adds	r6, r6, r0
10002d50:	1c2c      	adds	r4, r5, #0
10002d52:	18b3      	adds	r3, r6, r2
10002d54:	437c      	muls	r4, r7
10002d56:	429a      	cmp	r2, r3
10002d58:	d900      	bls.n	10002d5c <__aeabi_fmul+0x8c>
10002d5a:	e09a      	b.n	10002e92 <__aeabi_fmul+0x1c2>
10002d5c:	0409      	lsls	r1, r1, #16
10002d5e:	041d      	lsls	r5, r3, #16
10002d60:	0c08      	lsrs	r0, r1, #16
10002d62:	182e      	adds	r6, r5, r0
10002d64:	01b5      	lsls	r5, r6, #6
10002d66:	0c1b      	lsrs	r3, r3, #16
10002d68:	1e69      	subs	r1, r5, #1
10002d6a:	418d      	sbcs	r5, r1
10002d6c:	0eb2      	lsrs	r2, r6, #26
10002d6e:	18e7      	adds	r7, r4, r3
10002d70:	4315      	orrs	r5, r2
10002d72:	01bc      	lsls	r4, r7, #6
10002d74:	4325      	orrs	r5, r4
10002d76:	012b      	lsls	r3, r5, #4
10002d78:	d54b      	bpl.n	10002e12 <__aeabi_fmul+0x142>
10002d7a:	2001      	movs	r0, #1
10002d7c:	4028      	ands	r0, r5
10002d7e:	2101      	movs	r1, #1
10002d80:	086d      	lsrs	r5, r5, #1
10002d82:	4489      	add	r9, r1
10002d84:	4305      	orrs	r5, r0
10002d86:	e044      	b.n	10002e12 <__aeabi_fmul+0x142>
10002d88:	2d00      	cmp	r5, #0
10002d8a:	d11e      	bne.n	10002dca <__aeabi_fmul+0xfa>
10002d8c:	2008      	movs	r0, #8
10002d8e:	2102      	movs	r1, #2
10002d90:	4680      	mov	r8, r0
10002d92:	468a      	mov	sl, r1
10002d94:	e7bc      	b.n	10002d10 <__aeabi_fmul+0x40>
10002d96:	2bff      	cmp	r3, #255	; 0xff
10002d98:	d012      	beq.n	10002dc0 <__aeabi_fmul+0xf0>
10002d9a:	2280      	movs	r2, #128	; 0x80
10002d9c:	0410      	lsls	r0, r2, #16
10002d9e:	4307      	orrs	r7, r0
10002da0:	4658      	mov	r0, fp
10002da2:	2100      	movs	r1, #0
10002da4:	4060      	eors	r0, r4
10002da6:	4642      	mov	r2, r8
10002da8:	00ff      	lsls	r7, r7, #3
10002daa:	3b7f      	subs	r3, #127	; 0x7f
10002dac:	9001      	str	r0, [sp, #4]
10002dae:	430a      	orrs	r2, r1
10002db0:	2a0f      	cmp	r2, #15
10002db2:	d8bf      	bhi.n	10002d34 <__aeabi_fmul+0x64>
10002db4:	0090      	lsls	r0, r2, #2
10002db6:	4a5b      	ldr	r2, [pc, #364]	; (10002f24 <__aeabi_fmul+0x254>)
10002db8:	4684      	mov	ip, r0
10002dba:	4462      	add	r2, ip
10002dbc:	6810      	ldr	r0, [r2, #0]
10002dbe:	4687      	mov	pc, r0
10002dc0:	1c39      	adds	r1, r7, #0
10002dc2:	1e4a      	subs	r2, r1, #1
10002dc4:	4191      	sbcs	r1, r2
10002dc6:	3102      	adds	r1, #2
10002dc8:	e7ad      	b.n	10002d26 <__aeabi_fmul+0x56>
10002dca:	220c      	movs	r2, #12
10002dcc:	2303      	movs	r3, #3
10002dce:	4690      	mov	r8, r2
10002dd0:	469a      	mov	sl, r3
10002dd2:	e79d      	b.n	10002d10 <__aeabi_fmul+0x40>
10002dd4:	1c28      	adds	r0, r5, #0
10002dd6:	f002 f9fb 	bl	100051d0 <__clzsi2>
10002dda:	2276      	movs	r2, #118	; 0x76
10002ddc:	1f46      	subs	r6, r0, #5
10002dde:	4253      	negs	r3, r2
10002de0:	40b5      	lsls	r5, r6
10002de2:	1a1e      	subs	r6, r3, r0
10002de4:	2000      	movs	r0, #0
10002de6:	4680      	mov	r8, r0
10002de8:	4682      	mov	sl, r0
10002dea:	e791      	b.n	10002d10 <__aeabi_fmul+0x40>
10002dec:	1c38      	adds	r0, r7, #0
10002dee:	f002 f9ef 	bl	100051d0 <__clzsi2>
10002df2:	2176      	movs	r1, #118	; 0x76
10002df4:	1f43      	subs	r3, r0, #5
10002df6:	424a      	negs	r2, r1
10002df8:	409f      	lsls	r7, r3
10002dfa:	2100      	movs	r1, #0
10002dfc:	1a13      	subs	r3, r2, r0
10002dfe:	e792      	b.n	10002d26 <__aeabi_fmul+0x56>
10002e00:	9401      	str	r4, [sp, #4]
10002e02:	4651      	mov	r1, sl
10002e04:	2902      	cmp	r1, #2
10002e06:	d02c      	beq.n	10002e62 <__aeabi_fmul+0x192>
10002e08:	2903      	cmp	r1, #3
10002e0a:	d100      	bne.n	10002e0e <__aeabi_fmul+0x13e>
10002e0c:	e080      	b.n	10002f10 <__aeabi_fmul+0x240>
10002e0e:	2901      	cmp	r1, #1
10002e10:	d048      	beq.n	10002ea4 <__aeabi_fmul+0x1d4>
10002e12:	464e      	mov	r6, r9
10002e14:	367f      	adds	r6, #127	; 0x7f
10002e16:	2e00      	cmp	r6, #0
10002e18:	dd51      	ble.n	10002ebe <__aeabi_fmul+0x1ee>
10002e1a:	240f      	movs	r4, #15
10002e1c:	402c      	ands	r4, r5
10002e1e:	2c04      	cmp	r4, #4
10002e20:	d000      	beq.n	10002e24 <__aeabi_fmul+0x154>
10002e22:	3504      	adds	r5, #4
10002e24:	012a      	lsls	r2, r5, #4
10002e26:	d503      	bpl.n	10002e30 <__aeabi_fmul+0x160>
10002e28:	493f      	ldr	r1, [pc, #252]	; (10002f28 <__aeabi_fmul+0x258>)
10002e2a:	464e      	mov	r6, r9
10002e2c:	400d      	ands	r5, r1
10002e2e:	3680      	adds	r6, #128	; 0x80
10002e30:	2efe      	cmp	r6, #254	; 0xfe
10002e32:	dd3d      	ble.n	10002eb0 <__aeabi_fmul+0x1e0>
10002e34:	9b01      	ldr	r3, [sp, #4]
10002e36:	2401      	movs	r4, #1
10002e38:	401c      	ands	r4, r3
10002e3a:	21ff      	movs	r1, #255	; 0xff
10002e3c:	2500      	movs	r5, #0
10002e3e:	05c8      	lsls	r0, r1, #23
10002e40:	07e2      	lsls	r2, r4, #31
10002e42:	4328      	orrs	r0, r5
10002e44:	4310      	orrs	r0, r2
10002e46:	b003      	add	sp, #12
10002e48:	bc3c      	pop	{r2, r3, r4, r5}
10002e4a:	4690      	mov	r8, r2
10002e4c:	4699      	mov	r9, r3
10002e4e:	46a2      	mov	sl, r4
10002e50:	46ab      	mov	fp, r5
10002e52:	bdf0      	pop	{r4, r5, r6, r7, pc}
10002e54:	2400      	movs	r4, #0
10002e56:	4d35      	ldr	r5, [pc, #212]	; (10002f2c <__aeabi_fmul+0x25c>)
10002e58:	21ff      	movs	r1, #255	; 0xff
10002e5a:	e7f0      	b.n	10002e3e <__aeabi_fmul+0x16e>
10002e5c:	4651      	mov	r1, sl
10002e5e:	2902      	cmp	r1, #2
10002e60:	d1d2      	bne.n	10002e08 <__aeabi_fmul+0x138>
10002e62:	9d01      	ldr	r5, [sp, #4]
10002e64:	2401      	movs	r4, #1
10002e66:	402c      	ands	r4, r5
10002e68:	21ff      	movs	r1, #255	; 0xff
10002e6a:	2500      	movs	r5, #0
10002e6c:	e7e7      	b.n	10002e3e <__aeabi_fmul+0x16e>
10002e6e:	465e      	mov	r6, fp
10002e70:	1c3d      	adds	r5, r7, #0
10002e72:	9601      	str	r6, [sp, #4]
10002e74:	e7c6      	b.n	10002e04 <__aeabi_fmul+0x134>
10002e76:	1c3d      	adds	r5, r7, #0
10002e78:	e7c4      	b.n	10002e04 <__aeabi_fmul+0x134>
10002e7a:	2680      	movs	r6, #128	; 0x80
10002e7c:	03f3      	lsls	r3, r6, #15
10002e7e:	421d      	tst	r5, r3
10002e80:	d00b      	beq.n	10002e9a <__aeabi_fmul+0x1ca>
10002e82:	421f      	tst	r7, r3
10002e84:	d109      	bne.n	10002e9a <__aeabi_fmul+0x1ca>
10002e86:	431f      	orrs	r7, r3
10002e88:	027a      	lsls	r2, r7, #9
10002e8a:	0a55      	lsrs	r5, r2, #9
10002e8c:	465c      	mov	r4, fp
10002e8e:	21ff      	movs	r1, #255	; 0xff
10002e90:	e7d5      	b.n	10002e3e <__aeabi_fmul+0x16e>
10002e92:	2280      	movs	r2, #128	; 0x80
10002e94:	0257      	lsls	r7, r2, #9
10002e96:	19e4      	adds	r4, r4, r7
10002e98:	e760      	b.n	10002d5c <__aeabi_fmul+0x8c>
10002e9a:	431d      	orrs	r5, r3
10002e9c:	026f      	lsls	r7, r5, #9
10002e9e:	0a7d      	lsrs	r5, r7, #9
10002ea0:	21ff      	movs	r1, #255	; 0xff
10002ea2:	e7cc      	b.n	10002e3e <__aeabi_fmul+0x16e>
10002ea4:	9b01      	ldr	r3, [sp, #4]
10002ea6:	2500      	movs	r5, #0
10002ea8:	4019      	ands	r1, r3
10002eaa:	b2cc      	uxtb	r4, r1
10002eac:	2100      	movs	r1, #0
10002eae:	e7c6      	b.n	10002e3e <__aeabi_fmul+0x16e>
10002eb0:	9801      	ldr	r0, [sp, #4]
10002eb2:	01ad      	lsls	r5, r5, #6
10002eb4:	2401      	movs	r4, #1
10002eb6:	0a6d      	lsrs	r5, r5, #9
10002eb8:	b2f1      	uxtb	r1, r6
10002eba:	4004      	ands	r4, r0
10002ebc:	e7bf      	b.n	10002e3e <__aeabi_fmul+0x16e>
10002ebe:	267e      	movs	r6, #126	; 0x7e
10002ec0:	4273      	negs	r3, r6
10002ec2:	464a      	mov	r2, r9
10002ec4:	1a9f      	subs	r7, r3, r2
10002ec6:	2f1b      	cmp	r7, #27
10002ec8:	dd05      	ble.n	10002ed6 <__aeabi_fmul+0x206>
10002eca:	9d01      	ldr	r5, [sp, #4]
10002ecc:	2401      	movs	r4, #1
10002ece:	402c      	ands	r4, r5
10002ed0:	2100      	movs	r1, #0
10002ed2:	2500      	movs	r5, #0
10002ed4:	e7b3      	b.n	10002e3e <__aeabi_fmul+0x16e>
10002ed6:	4649      	mov	r1, r9
10002ed8:	319e      	adds	r1, #158	; 0x9e
10002eda:	1c2c      	adds	r4, r5, #0
10002edc:	408d      	lsls	r5, r1
10002ede:	1c2e      	adds	r6, r5, #0
10002ee0:	40fc      	lsrs	r4, r7
10002ee2:	1e75      	subs	r5, r6, #1
10002ee4:	41ae      	sbcs	r6, r5
10002ee6:	4326      	orrs	r6, r4
10002ee8:	200f      	movs	r0, #15
10002eea:	4030      	ands	r0, r6
10002eec:	2804      	cmp	r0, #4
10002eee:	d000      	beq.n	10002ef2 <__aeabi_fmul+0x222>
10002ef0:	3604      	adds	r6, #4
10002ef2:	0170      	lsls	r0, r6, #5
10002ef4:	d505      	bpl.n	10002f02 <__aeabi_fmul+0x232>
10002ef6:	9f01      	ldr	r7, [sp, #4]
10002ef8:	2401      	movs	r4, #1
10002efa:	403c      	ands	r4, r7
10002efc:	2101      	movs	r1, #1
10002efe:	2500      	movs	r5, #0
10002f00:	e79d      	b.n	10002e3e <__aeabi_fmul+0x16e>
10002f02:	9a01      	ldr	r2, [sp, #4]
10002f04:	01b3      	lsls	r3, r6, #6
10002f06:	2401      	movs	r4, #1
10002f08:	0a5d      	lsrs	r5, r3, #9
10002f0a:	4014      	ands	r4, r2
10002f0c:	2100      	movs	r1, #0
10002f0e:	e796      	b.n	10002e3e <__aeabi_fmul+0x16e>
10002f10:	2280      	movs	r2, #128	; 0x80
10002f12:	03d0      	lsls	r0, r2, #15
10002f14:	4305      	orrs	r5, r0
10002f16:	026c      	lsls	r4, r5, #9
10002f18:	9901      	ldr	r1, [sp, #4]
10002f1a:	0a65      	lsrs	r5, r4, #9
10002f1c:	2401      	movs	r4, #1
10002f1e:	400c      	ands	r4, r1
10002f20:	21ff      	movs	r1, #255	; 0xff
10002f22:	e78c      	b.n	10002e3e <__aeabi_fmul+0x16e>
10002f24:	10005400 	.word	0x10005400
10002f28:	f7ffffff 	.word	0xf7ffffff
10002f2c:	007fffff 	.word	0x007fffff

10002f30 <__aeabi_fsub>:
10002f30:	b5f8      	push	{r3, r4, r5, r6, r7, lr}
10002f32:	0243      	lsls	r3, r0, #9
10002f34:	0045      	lsls	r5, r0, #1
10002f36:	024f      	lsls	r7, r1, #9
10002f38:	004c      	lsls	r4, r1, #1
10002f3a:	0fc2      	lsrs	r2, r0, #31
10002f3c:	0998      	lsrs	r0, r3, #6
10002f3e:	4684      	mov	ip, r0
10002f40:	0e2d      	lsrs	r5, r5, #24
10002f42:	0e20      	lsrs	r0, r4, #24
10002f44:	0fc9      	lsrs	r1, r1, #31
10002f46:	09bf      	lsrs	r7, r7, #6
10002f48:	28ff      	cmp	r0, #255	; 0xff
10002f4a:	d054      	beq.n	10002ff6 <__aeabi_fsub+0xc6>
10002f4c:	2601      	movs	r6, #1
10002f4e:	4071      	eors	r1, r6
10002f50:	428a      	cmp	r2, r1
10002f52:	d03b      	beq.n	10002fcc <__aeabi_fsub+0x9c>
10002f54:	1a2c      	subs	r4, r5, r0
10002f56:	2c00      	cmp	r4, #0
10002f58:	dc00      	bgt.n	10002f5c <__aeabi_fsub+0x2c>
10002f5a:	e089      	b.n	10003070 <__aeabi_fsub+0x140>
10002f5c:	2800      	cmp	r0, #0
10002f5e:	d125      	bne.n	10002fac <__aeabi_fsub+0x7c>
10002f60:	2f00      	cmp	r7, #0
10002f62:	d14b      	bne.n	10002ffc <__aeabi_fsub+0xcc>
10002f64:	1c6e      	adds	r6, r5, #1
10002f66:	1c2c      	adds	r4, r5, #0
10002f68:	4663      	mov	r3, ip
10002f6a:	1c15      	adds	r5, r2, #0
10002f6c:	220f      	movs	r2, #15
10002f6e:	401a      	ands	r2, r3
10002f70:	2a04      	cmp	r2, #4
10002f72:	d000      	beq.n	10002f76 <__aeabi_fsub+0x46>
10002f74:	3304      	adds	r3, #4
10002f76:	2780      	movs	r7, #128	; 0x80
10002f78:	04f9      	lsls	r1, r7, #19
10002f7a:	2201      	movs	r2, #1
10002f7c:	4019      	ands	r1, r3
10002f7e:	402a      	ands	r2, r5
10002f80:	2900      	cmp	r1, #0
10002f82:	d006      	beq.n	10002f92 <__aeabi_fsub+0x62>
10002f84:	2eff      	cmp	r6, #255	; 0xff
10002f86:	d100      	bne.n	10002f8a <__aeabi_fsub+0x5a>
10002f88:	e081      	b.n	1000308e <__aeabi_fsub+0x15e>
10002f8a:	4db1      	ldr	r5, [pc, #708]	; (10003250 <__aeabi_fsub+0x320>)
10002f8c:	1c34      	adds	r4, r6, #0
10002f8e:	402b      	ands	r3, r5
10002f90:	3601      	adds	r6, #1
10002f92:	b2f6      	uxtb	r6, r6
10002f94:	08dd      	lsrs	r5, r3, #3
10002f96:	2e01      	cmp	r6, #1
10002f98:	dd62      	ble.n	10003060 <__aeabi_fsub+0x130>
10002f9a:	026b      	lsls	r3, r5, #9
10002f9c:	0a5d      	lsrs	r5, r3, #9
10002f9e:	b2e4      	uxtb	r4, r4
10002fa0:	05e4      	lsls	r4, r4, #23
10002fa2:	4325      	orrs	r5, r4
10002fa4:	1c28      	adds	r0, r5, #0
10002fa6:	07d2      	lsls	r2, r2, #31
10002fa8:	4310      	orrs	r0, r2
10002faa:	bdf8      	pop	{r3, r4, r5, r6, r7, pc}
10002fac:	2dff      	cmp	r5, #255	; 0xff
10002fae:	d051      	beq.n	10003054 <__aeabi_fsub+0x124>
10002fb0:	2180      	movs	r1, #128	; 0x80
10002fb2:	04cb      	lsls	r3, r1, #19
10002fb4:	431f      	orrs	r7, r3
10002fb6:	2601      	movs	r6, #1
10002fb8:	2c1b      	cmp	r4, #27
10002fba:	dd70      	ble.n	1000309e <__aeabi_fsub+0x16e>
10002fbc:	4667      	mov	r7, ip
10002fbe:	1c2c      	adds	r4, r5, #0
10002fc0:	1bbb      	subs	r3, r7, r6
10002fc2:	1c15      	adds	r5, r2, #0
10002fc4:	0158      	lsls	r0, r3, #5
10002fc6:	d422      	bmi.n	1000300e <__aeabi_fsub+0xde>
10002fc8:	1c66      	adds	r6, r4, #1
10002fca:	e7cf      	b.n	10002f6c <__aeabi_fsub+0x3c>
10002fcc:	1a2e      	subs	r6, r5, r0
10002fce:	2e00      	cmp	r6, #0
10002fd0:	dd76      	ble.n	100030c0 <__aeabi_fsub+0x190>
10002fd2:	2800      	cmp	r0, #0
10002fd4:	d032      	beq.n	1000303c <__aeabi_fsub+0x10c>
10002fd6:	2dff      	cmp	r5, #255	; 0xff
10002fd8:	d03c      	beq.n	10003054 <__aeabi_fsub+0x124>
10002fda:	2480      	movs	r4, #128	; 0x80
10002fdc:	04e1      	lsls	r1, r4, #19
10002fde:	430f      	orrs	r7, r1
10002fe0:	2301      	movs	r3, #1
10002fe2:	2e1b      	cmp	r6, #27
10002fe4:	dc00      	bgt.n	10002fe8 <__aeabi_fsub+0xb8>
10002fe6:	e0d1      	b.n	1000318c <__aeabi_fsub+0x25c>
10002fe8:	4463      	add	r3, ip
10002fea:	1c2c      	adds	r4, r5, #0
10002fec:	0158      	lsls	r0, r3, #5
10002fee:	d47a      	bmi.n	100030e6 <__aeabi_fsub+0x1b6>
10002ff0:	1c66      	adds	r6, r4, #1
10002ff2:	1c15      	adds	r5, r2, #0
10002ff4:	e7ba      	b.n	10002f6c <__aeabi_fsub+0x3c>
10002ff6:	2f00      	cmp	r7, #0
10002ff8:	d1aa      	bne.n	10002f50 <__aeabi_fsub+0x20>
10002ffa:	e7a7      	b.n	10002f4c <__aeabi_fsub+0x1c>
10002ffc:	3c01      	subs	r4, #1
10002ffe:	2c00      	cmp	r4, #0
10003000:	d16d      	bne.n	100030de <__aeabi_fsub+0x1ae>
10003002:	4663      	mov	r3, ip
10003004:	1c2c      	adds	r4, r5, #0
10003006:	1bdb      	subs	r3, r3, r7
10003008:	1c15      	adds	r5, r2, #0
1000300a:	0158      	lsls	r0, r3, #5
1000300c:	d5dc      	bpl.n	10002fc8 <__aeabi_fsub+0x98>
1000300e:	019a      	lsls	r2, r3, #6
10003010:	0996      	lsrs	r6, r2, #6
10003012:	1c30      	adds	r0, r6, #0
10003014:	f002 f8dc 	bl	100051d0 <__clzsi2>
10003018:	3805      	subs	r0, #5
1000301a:	4086      	lsls	r6, r0
1000301c:	4284      	cmp	r4, r0
1000301e:	dc39      	bgt.n	10003094 <__aeabi_fsub+0x164>
10003020:	1b00      	subs	r0, r0, r4
10003022:	231f      	movs	r3, #31
10003024:	1a1a      	subs	r2, r3, r0
10003026:	1c33      	adds	r3, r6, #0
10003028:	1c31      	adds	r1, r6, #0
1000302a:	1c44      	adds	r4, r0, #1
1000302c:	4093      	lsls	r3, r2
1000302e:	40e1      	lsrs	r1, r4
10003030:	1e5e      	subs	r6, r3, #1
10003032:	41b3      	sbcs	r3, r6
10003034:	430b      	orrs	r3, r1
10003036:	2601      	movs	r6, #1
10003038:	2400      	movs	r4, #0
1000303a:	e797      	b.n	10002f6c <__aeabi_fsub+0x3c>
1000303c:	2f00      	cmp	r7, #0
1000303e:	d100      	bne.n	10003042 <__aeabi_fsub+0x112>
10003040:	e790      	b.n	10002f64 <__aeabi_fsub+0x34>
10003042:	3e01      	subs	r6, #1
10003044:	2e00      	cmp	r6, #0
10003046:	d103      	bne.n	10003050 <__aeabi_fsub+0x120>
10003048:	4664      	mov	r4, ip
1000304a:	193b      	adds	r3, r7, r4
1000304c:	1c2c      	adds	r4, r5, #0
1000304e:	e7cd      	b.n	10002fec <__aeabi_fsub+0xbc>
10003050:	2dff      	cmp	r5, #255	; 0xff
10003052:	d1c5      	bne.n	10002fe0 <__aeabi_fsub+0xb0>
10003054:	1c15      	adds	r5, r2, #0
10003056:	2280      	movs	r2, #128	; 0x80
10003058:	4663      	mov	r3, ip
1000305a:	0056      	lsls	r6, r2, #1
1000305c:	24ff      	movs	r4, #255	; 0xff
1000305e:	e785      	b.n	10002f6c <__aeabi_fsub+0x3c>
10003060:	2d00      	cmp	r5, #0
10003062:	d09c      	beq.n	10002f9e <__aeabi_fsub+0x6e>
10003064:	2c00      	cmp	r4, #0
10003066:	d028      	beq.n	100030ba <__aeabi_fsub+0x18a>
10003068:	2080      	movs	r0, #128	; 0x80
1000306a:	03c7      	lsls	r7, r0, #15
1000306c:	433d      	orrs	r5, r7
1000306e:	e794      	b.n	10002f9a <__aeabi_fsub+0x6a>
10003070:	2c00      	cmp	r4, #0
10003072:	d145      	bne.n	10003100 <__aeabi_fsub+0x1d0>
10003074:	1c6b      	adds	r3, r5, #1
10003076:	b2d8      	uxtb	r0, r3
10003078:	2801      	cmp	r0, #1
1000307a:	dc00      	bgt.n	1000307e <__aeabi_fsub+0x14e>
1000307c:	e090      	b.n	100031a0 <__aeabi_fsub+0x270>
1000307e:	4664      	mov	r4, ip
10003080:	1be6      	subs	r6, r4, r7
10003082:	0173      	lsls	r3, r6, #5
10003084:	d557      	bpl.n	10003136 <__aeabi_fsub+0x206>
10003086:	1b3e      	subs	r6, r7, r4
10003088:	1c2c      	adds	r4, r5, #0
1000308a:	1c0d      	adds	r5, r1, #0
1000308c:	e7c1      	b.n	10003012 <__aeabi_fsub+0xe2>
1000308e:	24ff      	movs	r4, #255	; 0xff
10003090:	2500      	movs	r5, #0
10003092:	e785      	b.n	10002fa0 <__aeabi_fsub+0x70>
10003094:	4b6e      	ldr	r3, [pc, #440]	; (10003250 <__aeabi_fsub+0x320>)
10003096:	1a24      	subs	r4, r4, r0
10003098:	4033      	ands	r3, r6
1000309a:	1c66      	adds	r6, r4, #1
1000309c:	e766      	b.n	10002f6c <__aeabi_fsub+0x3c>
1000309e:	1c38      	adds	r0, r7, #0
100030a0:	2120      	movs	r1, #32
100030a2:	40e0      	lsrs	r0, r4
100030a4:	1b0c      	subs	r4, r1, r4
100030a6:	40a7      	lsls	r7, r4
100030a8:	1c3e      	adds	r6, r7, #0
100030aa:	1e77      	subs	r7, r6, #1
100030ac:	41be      	sbcs	r6, r7
100030ae:	4306      	orrs	r6, r0
100030b0:	4667      	mov	r7, ip
100030b2:	1c2c      	adds	r4, r5, #0
100030b4:	1bbb      	subs	r3, r7, r6
100030b6:	1c15      	adds	r5, r2, #0
100030b8:	e784      	b.n	10002fc4 <__aeabi_fsub+0x94>
100030ba:	0269      	lsls	r1, r5, #9
100030bc:	0a4d      	lsrs	r5, r1, #9
100030be:	e76f      	b.n	10002fa0 <__aeabi_fsub+0x70>
100030c0:	2e00      	cmp	r6, #0
100030c2:	d179      	bne.n	100031b8 <__aeabi_fsub+0x288>
100030c4:	1c6c      	adds	r4, r5, #1
100030c6:	b2e0      	uxtb	r0, r4
100030c8:	2801      	cmp	r0, #1
100030ca:	dd4b      	ble.n	10003164 <__aeabi_fsub+0x234>
100030cc:	2cff      	cmp	r4, #255	; 0xff
100030ce:	d100      	bne.n	100030d2 <__aeabi_fsub+0x1a2>
100030d0:	e098      	b.n	10003204 <__aeabi_fsub+0x2d4>
100030d2:	4661      	mov	r1, ip
100030d4:	187f      	adds	r7, r7, r1
100030d6:	1cae      	adds	r6, r5, #2
100030d8:	087b      	lsrs	r3, r7, #1
100030da:	1c15      	adds	r5, r2, #0
100030dc:	e746      	b.n	10002f6c <__aeabi_fsub+0x3c>
100030de:	2dff      	cmp	r5, #255	; 0xff
100030e0:	d000      	beq.n	100030e4 <__aeabi_fsub+0x1b4>
100030e2:	e768      	b.n	10002fb6 <__aeabi_fsub+0x86>
100030e4:	e7b6      	b.n	10003054 <__aeabi_fsub+0x124>
100030e6:	1c67      	adds	r7, r4, #1
100030e8:	2fff      	cmp	r7, #255	; 0xff
100030ea:	d036      	beq.n	1000315a <__aeabi_fsub+0x22a>
100030ec:	4858      	ldr	r0, [pc, #352]	; (10003250 <__aeabi_fsub+0x320>)
100030ee:	2101      	movs	r1, #1
100030f0:	4019      	ands	r1, r3
100030f2:	4003      	ands	r3, r0
100030f4:	085b      	lsrs	r3, r3, #1
100030f6:	1ca6      	adds	r6, r4, #2
100030f8:	430b      	orrs	r3, r1
100030fa:	1c3c      	adds	r4, r7, #0
100030fc:	1c15      	adds	r5, r2, #0
100030fe:	e735      	b.n	10002f6c <__aeabi_fsub+0x3c>
10003100:	4266      	negs	r6, r4
10003102:	2d00      	cmp	r5, #0
10003104:	d01e      	beq.n	10003144 <__aeabi_fsub+0x214>
10003106:	28ff      	cmp	r0, #255	; 0xff
10003108:	d06f      	beq.n	100031ea <__aeabi_fsub+0x2ba>
1000310a:	2580      	movs	r5, #128	; 0x80
1000310c:	4662      	mov	r2, ip
1000310e:	04eb      	lsls	r3, r5, #19
10003110:	431a      	orrs	r2, r3
10003112:	4694      	mov	ip, r2
10003114:	2501      	movs	r5, #1
10003116:	2e1b      	cmp	r6, #27
10003118:	dc09      	bgt.n	1000312e <__aeabi_fsub+0x1fe>
1000311a:	4662      	mov	r2, ip
1000311c:	2320      	movs	r3, #32
1000311e:	40f2      	lsrs	r2, r6
10003120:	4664      	mov	r4, ip
10003122:	1b9e      	subs	r6, r3, r6
10003124:	40b4      	lsls	r4, r6
10003126:	1c25      	adds	r5, r4, #0
10003128:	1e6c      	subs	r4, r5, #1
1000312a:	41a5      	sbcs	r5, r4
1000312c:	4315      	orrs	r5, r2
1000312e:	1b7b      	subs	r3, r7, r5
10003130:	1c04      	adds	r4, r0, #0
10003132:	1c0d      	adds	r5, r1, #0
10003134:	e769      	b.n	1000300a <__aeabi_fsub+0xda>
10003136:	2e00      	cmp	r6, #0
10003138:	d10c      	bne.n	10003154 <__aeabi_fsub+0x224>
1000313a:	2200      	movs	r2, #0
1000313c:	2601      	movs	r6, #1
1000313e:	2304      	movs	r3, #4
10003140:	2400      	movs	r4, #0
10003142:	e726      	b.n	10002f92 <__aeabi_fsub+0x62>
10003144:	4664      	mov	r4, ip
10003146:	2c00      	cmp	r4, #0
10003148:	d155      	bne.n	100031f6 <__aeabi_fsub+0x2c6>
1000314a:	1c46      	adds	r6, r0, #1
1000314c:	1c3b      	adds	r3, r7, #0
1000314e:	1c04      	adds	r4, r0, #0
10003150:	1c0d      	adds	r5, r1, #0
10003152:	e70b      	b.n	10002f6c <__aeabi_fsub+0x3c>
10003154:	1c2c      	adds	r4, r5, #0
10003156:	1c15      	adds	r5, r2, #0
10003158:	e75b      	b.n	10003012 <__aeabi_fsub+0xe2>
1000315a:	2380      	movs	r3, #128	; 0x80
1000315c:	005e      	lsls	r6, r3, #1
1000315e:	24ff      	movs	r4, #255	; 0xff
10003160:	2304      	movs	r3, #4
10003162:	e716      	b.n	10002f92 <__aeabi_fsub+0x62>
10003164:	2d00      	cmp	r5, #0
10003166:	d000      	beq.n	1000316a <__aeabi_fsub+0x23a>
10003168:	e08d      	b.n	10003286 <__aeabi_fsub+0x356>
1000316a:	4665      	mov	r5, ip
1000316c:	2d00      	cmp	r5, #0
1000316e:	d100      	bne.n	10003172 <__aeabi_fsub+0x242>
10003170:	e0ad      	b.n	100032ce <__aeabi_fsub+0x39e>
10003172:	2f00      	cmp	r7, #0
10003174:	d100      	bne.n	10003178 <__aeabi_fsub+0x248>
10003176:	e081      	b.n	1000327c <__aeabi_fsub+0x34c>
10003178:	197b      	adds	r3, r7, r5
1000317a:	015c      	lsls	r4, r3, #5
1000317c:	d400      	bmi.n	10003180 <__aeabi_fsub+0x250>
1000317e:	e07e      	b.n	1000327e <__aeabi_fsub+0x34e>
10003180:	4f33      	ldr	r7, [pc, #204]	; (10003250 <__aeabi_fsub+0x320>)
10003182:	1c15      	adds	r5, r2, #0
10003184:	403b      	ands	r3, r7
10003186:	2602      	movs	r6, #2
10003188:	2401      	movs	r4, #1
1000318a:	e6ef      	b.n	10002f6c <__aeabi_fsub+0x3c>
1000318c:	1c38      	adds	r0, r7, #0
1000318e:	2320      	movs	r3, #32
10003190:	40f0      	lsrs	r0, r6
10003192:	1b9e      	subs	r6, r3, r6
10003194:	40b7      	lsls	r7, r6
10003196:	1c3b      	adds	r3, r7, #0
10003198:	1e5f      	subs	r7, r3, #1
1000319a:	41bb      	sbcs	r3, r7
1000319c:	4303      	orrs	r3, r0
1000319e:	e723      	b.n	10002fe8 <__aeabi_fsub+0xb8>
100031a0:	2d00      	cmp	r5, #0
100031a2:	d115      	bne.n	100031d0 <__aeabi_fsub+0x2a0>
100031a4:	4665      	mov	r5, ip
100031a6:	2d00      	cmp	r5, #0
100031a8:	d147      	bne.n	1000323a <__aeabi_fsub+0x30a>
100031aa:	2f00      	cmp	r7, #0
100031ac:	d0c5      	beq.n	1000313a <__aeabi_fsub+0x20a>
100031ae:	1c3b      	adds	r3, r7, #0
100031b0:	1c0d      	adds	r5, r1, #0
100031b2:	2601      	movs	r6, #1
100031b4:	2400      	movs	r4, #0
100031b6:	e6d9      	b.n	10002f6c <__aeabi_fsub+0x3c>
100031b8:	4276      	negs	r6, r6
100031ba:	2d00      	cmp	r5, #0
100031bc:	d126      	bne.n	1000320c <__aeabi_fsub+0x2dc>
100031be:	4665      	mov	r5, ip
100031c0:	2d00      	cmp	r5, #0
100031c2:	d000      	beq.n	100031c6 <__aeabi_fsub+0x296>
100031c4:	e07d      	b.n	100032c2 <__aeabi_fsub+0x392>
100031c6:	1c46      	adds	r6, r0, #1
100031c8:	1c3b      	adds	r3, r7, #0
100031ca:	1c04      	adds	r4, r0, #0
100031cc:	1c15      	adds	r5, r2, #0
100031ce:	e6cd      	b.n	10002f6c <__aeabi_fsub+0x3c>
100031d0:	4665      	mov	r5, ip
100031d2:	2d00      	cmp	r5, #0
100031d4:	d140      	bne.n	10003258 <__aeabi_fsub+0x328>
100031d6:	2f00      	cmp	r7, #0
100031d8:	d107      	bne.n	100031ea <__aeabi_fsub+0x2ba>
100031da:	2180      	movs	r1, #128	; 0x80
100031dc:	2200      	movs	r2, #0
100031de:	004e      	lsls	r6, r1, #1
100031e0:	4b1c      	ldr	r3, [pc, #112]	; (10003254 <__aeabi_fsub+0x324>)
100031e2:	24ff      	movs	r4, #255	; 0xff
100031e4:	e6d5      	b.n	10002f92 <__aeabi_fsub+0x62>
100031e6:	28ff      	cmp	r0, #255	; 0xff
100031e8:	d194      	bne.n	10003114 <__aeabi_fsub+0x1e4>
100031ea:	2080      	movs	r0, #128	; 0x80
100031ec:	1c3b      	adds	r3, r7, #0
100031ee:	1c0d      	adds	r5, r1, #0
100031f0:	0046      	lsls	r6, r0, #1
100031f2:	24ff      	movs	r4, #255	; 0xff
100031f4:	e6ba      	b.n	10002f6c <__aeabi_fsub+0x3c>
100031f6:	3e01      	subs	r6, #1
100031f8:	2e00      	cmp	r6, #0
100031fa:	d1f4      	bne.n	100031e6 <__aeabi_fsub+0x2b6>
100031fc:	1b3b      	subs	r3, r7, r4
100031fe:	1c0d      	adds	r5, r1, #0
10003200:	1c04      	adds	r4, r0, #0
10003202:	e702      	b.n	1000300a <__aeabi_fsub+0xda>
10003204:	2580      	movs	r5, #128	; 0x80
10003206:	006e      	lsls	r6, r5, #1
10003208:	2304      	movs	r3, #4
1000320a:	e6c2      	b.n	10002f92 <__aeabi_fsub+0x62>
1000320c:	28ff      	cmp	r0, #255	; 0xff
1000320e:	d052      	beq.n	100032b6 <__aeabi_fsub+0x386>
10003210:	2480      	movs	r4, #128	; 0x80
10003212:	4661      	mov	r1, ip
10003214:	04e3      	lsls	r3, r4, #19
10003216:	4319      	orrs	r1, r3
10003218:	468c      	mov	ip, r1
1000321a:	2301      	movs	r3, #1
1000321c:	2e1b      	cmp	r6, #27
1000321e:	dc09      	bgt.n	10003234 <__aeabi_fsub+0x304>
10003220:	2120      	movs	r1, #32
10003222:	4664      	mov	r4, ip
10003224:	40f4      	lsrs	r4, r6
10003226:	4665      	mov	r5, ip
10003228:	1b8e      	subs	r6, r1, r6
1000322a:	40b5      	lsls	r5, r6
1000322c:	1c2b      	adds	r3, r5, #0
1000322e:	1e59      	subs	r1, r3, #1
10003230:	418b      	sbcs	r3, r1
10003232:	4323      	orrs	r3, r4
10003234:	19db      	adds	r3, r3, r7
10003236:	1c04      	adds	r4, r0, #0
10003238:	e6d8      	b.n	10002fec <__aeabi_fsub+0xbc>
1000323a:	2f00      	cmp	r7, #0
1000323c:	d01e      	beq.n	1000327c <__aeabi_fsub+0x34c>
1000323e:	1beb      	subs	r3, r5, r7
10003240:	0158      	lsls	r0, r3, #5
10003242:	d54b      	bpl.n	100032dc <__aeabi_fsub+0x3ac>
10003244:	1b7b      	subs	r3, r7, r5
10003246:	2601      	movs	r6, #1
10003248:	1c0d      	adds	r5, r1, #0
1000324a:	2400      	movs	r4, #0
1000324c:	e68e      	b.n	10002f6c <__aeabi_fsub+0x3c>
1000324e:	46c0      	nop			; (mov r8, r8)
10003250:	fbffffff 	.word	0xfbffffff
10003254:	03fffffc 	.word	0x03fffffc
10003258:	2f00      	cmp	r7, #0
1000325a:	d100      	bne.n	1000325e <__aeabi_fsub+0x32e>
1000325c:	e6fa      	b.n	10003054 <__aeabi_fsub+0x124>
1000325e:	2080      	movs	r0, #128	; 0x80
10003260:	08eb      	lsrs	r3, r5, #3
10003262:	03c4      	lsls	r4, r0, #15
10003264:	4223      	tst	r3, r4
10003266:	d037      	beq.n	100032d8 <__aeabi_fsub+0x3a8>
10003268:	08ff      	lsrs	r7, r7, #3
1000326a:	4227      	tst	r7, r4
1000326c:	d134      	bne.n	100032d8 <__aeabi_fsub+0x3a8>
1000326e:	1c3b      	adds	r3, r7, #0
10003270:	1c0d      	adds	r5, r1, #0
10003272:	2280      	movs	r2, #128	; 0x80
10003274:	00db      	lsls	r3, r3, #3
10003276:	0056      	lsls	r6, r2, #1
10003278:	24ff      	movs	r4, #255	; 0xff
1000327a:	e677      	b.n	10002f6c <__aeabi_fsub+0x3c>
1000327c:	4663      	mov	r3, ip
1000327e:	1c15      	adds	r5, r2, #0
10003280:	2601      	movs	r6, #1
10003282:	2400      	movs	r4, #0
10003284:	e672      	b.n	10002f6c <__aeabi_fsub+0x3c>
10003286:	4664      	mov	r4, ip
10003288:	2c00      	cmp	r4, #0
1000328a:	d014      	beq.n	100032b6 <__aeabi_fsub+0x386>
1000328c:	2f00      	cmp	r7, #0
1000328e:	d100      	bne.n	10003292 <__aeabi_fsub+0x362>
10003290:	e6e0      	b.n	10003054 <__aeabi_fsub+0x124>
10003292:	2380      	movs	r3, #128	; 0x80
10003294:	08e6      	lsrs	r6, r4, #3
10003296:	03d8      	lsls	r0, r3, #15
10003298:	1c31      	adds	r1, r6, #0
1000329a:	4206      	tst	r6, r0
1000329c:	d003      	beq.n	100032a6 <__aeabi_fsub+0x376>
1000329e:	08f9      	lsrs	r1, r7, #3
100032a0:	4201      	tst	r1, r0
100032a2:	d000      	beq.n	100032a6 <__aeabi_fsub+0x376>
100032a4:	1c31      	adds	r1, r6, #0
100032a6:	1c15      	adds	r5, r2, #0
100032a8:	2280      	movs	r2, #128	; 0x80
100032aa:	00cb      	lsls	r3, r1, #3
100032ac:	0056      	lsls	r6, r2, #1
100032ae:	24ff      	movs	r4, #255	; 0xff
100032b0:	e65c      	b.n	10002f6c <__aeabi_fsub+0x3c>
100032b2:	28ff      	cmp	r0, #255	; 0xff
100032b4:	d1b1      	bne.n	1000321a <__aeabi_fsub+0x2ea>
100032b6:	2080      	movs	r0, #128	; 0x80
100032b8:	1c3b      	adds	r3, r7, #0
100032ba:	1c15      	adds	r5, r2, #0
100032bc:	0046      	lsls	r6, r0, #1
100032be:	24ff      	movs	r4, #255	; 0xff
100032c0:	e654      	b.n	10002f6c <__aeabi_fsub+0x3c>
100032c2:	3e01      	subs	r6, #1
100032c4:	2e00      	cmp	r6, #0
100032c6:	d1f4      	bne.n	100032b2 <__aeabi_fsub+0x382>
100032c8:	197b      	adds	r3, r7, r5
100032ca:	1c04      	adds	r4, r0, #0
100032cc:	e68e      	b.n	10002fec <__aeabi_fsub+0xbc>
100032ce:	1c3b      	adds	r3, r7, #0
100032d0:	1c15      	adds	r5, r2, #0
100032d2:	2601      	movs	r6, #1
100032d4:	2400      	movs	r4, #0
100032d6:	e649      	b.n	10002f6c <__aeabi_fsub+0x3c>
100032d8:	1c15      	adds	r5, r2, #0
100032da:	e7ca      	b.n	10003272 <__aeabi_fsub+0x342>
100032dc:	2b00      	cmp	r3, #0
100032de:	d100      	bne.n	100032e2 <__aeabi_fsub+0x3b2>
100032e0:	e72b      	b.n	1000313a <__aeabi_fsub+0x20a>
100032e2:	e7cc      	b.n	1000327e <__aeabi_fsub+0x34e>

100032e4 <__aeabi_f2iz>:
100032e4:	0243      	lsls	r3, r0, #9
100032e6:	0042      	lsls	r2, r0, #1
100032e8:	0a59      	lsrs	r1, r3, #9
100032ea:	0e13      	lsrs	r3, r2, #24
100032ec:	0fc2      	lsrs	r2, r0, #31
100032ee:	2000      	movs	r0, #0
100032f0:	2b7e      	cmp	r3, #126	; 0x7e
100032f2:	dd0d      	ble.n	10003310 <__aeabi_f2iz+0x2c>
100032f4:	2b9d      	cmp	r3, #157	; 0x9d
100032f6:	dc0c      	bgt.n	10003312 <__aeabi_f2iz+0x2e>
100032f8:	2080      	movs	r0, #128	; 0x80
100032fa:	0400      	lsls	r0, r0, #16
100032fc:	4301      	orrs	r1, r0
100032fe:	2b95      	cmp	r3, #149	; 0x95
10003300:	dc0a      	bgt.n	10003318 <__aeabi_f2iz+0x34>
10003302:	2096      	movs	r0, #150	; 0x96
10003304:	1ac3      	subs	r3, r0, r3
10003306:	40d9      	lsrs	r1, r3
10003308:	4248      	negs	r0, r1
1000330a:	2a00      	cmp	r2, #0
1000330c:	d100      	bne.n	10003310 <__aeabi_f2iz+0x2c>
1000330e:	1c08      	adds	r0, r1, #0
10003310:	4770      	bx	lr
10003312:	4903      	ldr	r1, [pc, #12]	; (10003320 <__aeabi_f2iz+0x3c>)
10003314:	1850      	adds	r0, r2, r1
10003316:	e7fb      	b.n	10003310 <__aeabi_f2iz+0x2c>
10003318:	3b96      	subs	r3, #150	; 0x96
1000331a:	4099      	lsls	r1, r3
1000331c:	e7f4      	b.n	10003308 <__aeabi_f2iz+0x24>
1000331e:	46c0      	nop			; (mov r8, r8)
10003320:	7fffffff 	.word	0x7fffffff

10003324 <__aeabi_ui2f>:
10003324:	b510      	push	{r4, lr}
10003326:	1e04      	subs	r4, r0, #0
10003328:	d034      	beq.n	10003394 <__aeabi_ui2f+0x70>
1000332a:	f001 ff51 	bl	100051d0 <__clzsi2>
1000332e:	239e      	movs	r3, #158	; 0x9e
10003330:	1a1b      	subs	r3, r3, r0
10003332:	2b96      	cmp	r3, #150	; 0x96
10003334:	dc07      	bgt.n	10003346 <__aeabi_ui2f+0x22>
10003336:	3808      	subs	r0, #8
10003338:	4084      	lsls	r4, r0
1000333a:	0264      	lsls	r4, r4, #9
1000333c:	0a61      	lsrs	r1, r4, #9
1000333e:	b2db      	uxtb	r3, r3
10003340:	05d8      	lsls	r0, r3, #23
10003342:	4308      	orrs	r0, r1
10003344:	bd10      	pop	{r4, pc}
10003346:	2b99      	cmp	r3, #153	; 0x99
10003348:	dd0a      	ble.n	10003360 <__aeabi_ui2f+0x3c>
1000334a:	1c02      	adds	r2, r0, #0
1000334c:	321b      	adds	r2, #27
1000334e:	1c21      	adds	r1, r4, #0
10003350:	4091      	lsls	r1, r2
10003352:	1c0a      	adds	r2, r1, #0
10003354:	1e51      	subs	r1, r2, #1
10003356:	418a      	sbcs	r2, r1
10003358:	2105      	movs	r1, #5
1000335a:	1a09      	subs	r1, r1, r0
1000335c:	40cc      	lsrs	r4, r1
1000335e:	4314      	orrs	r4, r2
10003360:	2805      	cmp	r0, #5
10003362:	dc1a      	bgt.n	1000339a <__aeabi_ui2f+0x76>
10003364:	4a18      	ldr	r2, [pc, #96]	; (100033c8 <__aeabi_ui2f+0xa4>)
10003366:	210f      	movs	r1, #15
10003368:	4022      	ands	r2, r4
1000336a:	400c      	ands	r4, r1
1000336c:	2c04      	cmp	r4, #4
1000336e:	d000      	beq.n	10003372 <__aeabi_ui2f+0x4e>
10003370:	3204      	adds	r2, #4
10003372:	0151      	lsls	r1, r2, #5
10003374:	d505      	bpl.n	10003382 <__aeabi_ui2f+0x5e>
10003376:	249f      	movs	r4, #159	; 0x9f
10003378:	1a23      	subs	r3, r4, r0
1000337a:	2bff      	cmp	r3, #255	; 0xff
1000337c:	d021      	beq.n	100033c2 <__aeabi_ui2f+0x9e>
1000337e:	4812      	ldr	r0, [pc, #72]	; (100033c8 <__aeabi_ui2f+0xa4>)
10003380:	4002      	ands	r2, r0
10003382:	1c59      	adds	r1, r3, #1
10003384:	b2cc      	uxtb	r4, r1
10003386:	08d2      	lsrs	r2, r2, #3
10003388:	2c01      	cmp	r4, #1
1000338a:	dd09      	ble.n	100033a0 <__aeabi_ui2f+0x7c>
1000338c:	0250      	lsls	r0, r2, #9
1000338e:	0a41      	lsrs	r1, r0, #9
10003390:	b2db      	uxtb	r3, r3
10003392:	e7d5      	b.n	10003340 <__aeabi_ui2f+0x1c>
10003394:	2300      	movs	r3, #0
10003396:	2100      	movs	r1, #0
10003398:	e7d2      	b.n	10003340 <__aeabi_ui2f+0x1c>
1000339a:	1f42      	subs	r2, r0, #5
1000339c:	4094      	lsls	r4, r2
1000339e:	e7e1      	b.n	10003364 <__aeabi_ui2f+0x40>
100033a0:	2a00      	cmp	r2, #0
100033a2:	d00b      	beq.n	100033bc <__aeabi_ui2f+0x98>
100033a4:	2b00      	cmp	r3, #0
100033a6:	d006      	beq.n	100033b6 <__aeabi_ui2f+0x92>
100033a8:	2180      	movs	r1, #128	; 0x80
100033aa:	03cc      	lsls	r4, r1, #15
100033ac:	4322      	orrs	r2, r4
100033ae:	0252      	lsls	r2, r2, #9
100033b0:	0a51      	lsrs	r1, r2, #9
100033b2:	b2db      	uxtb	r3, r3
100033b4:	e7c4      	b.n	10003340 <__aeabi_ui2f+0x1c>
100033b6:	0250      	lsls	r0, r2, #9
100033b8:	0a41      	lsrs	r1, r0, #9
100033ba:	e7c1      	b.n	10003340 <__aeabi_ui2f+0x1c>
100033bc:	b2db      	uxtb	r3, r3
100033be:	2100      	movs	r1, #0
100033c0:	e7be      	b.n	10003340 <__aeabi_ui2f+0x1c>
100033c2:	23ff      	movs	r3, #255	; 0xff
100033c4:	2100      	movs	r1, #0
100033c6:	e7bb      	b.n	10003340 <__aeabi_ui2f+0x1c>
100033c8:	fbffffff 	.word	0xfbffffff

100033cc <__aeabi_dadd>:
100033cc:	b5f8      	push	{r3, r4, r5, r6, r7, lr}
100033ce:	465f      	mov	r7, fp
100033d0:	4656      	mov	r6, sl
100033d2:	464d      	mov	r5, r9
100033d4:	4644      	mov	r4, r8
100033d6:	b4f0      	push	{r4, r5, r6, r7}
100033d8:	030c      	lsls	r4, r1, #12
100033da:	0f46      	lsrs	r6, r0, #29
100033dc:	0a64      	lsrs	r4, r4, #9
100033de:	4334      	orrs	r4, r6
100033e0:	46a3      	mov	fp, r4
100033e2:	005e      	lsls	r6, r3, #1
100033e4:	031c      	lsls	r4, r3, #12
100033e6:	0fdb      	lsrs	r3, r3, #31
100033e8:	469c      	mov	ip, r3
100033ea:	0a63      	lsrs	r3, r4, #9
100033ec:	4698      	mov	r8, r3
100033ee:	004d      	lsls	r5, r1, #1
100033f0:	0f53      	lsrs	r3, r2, #29
100033f2:	4644      	mov	r4, r8
100033f4:	431c      	orrs	r4, r3
100033f6:	0d6d      	lsrs	r5, r5, #21
100033f8:	0fc9      	lsrs	r1, r1, #31
100033fa:	0d76      	lsrs	r6, r6, #21
100033fc:	00d2      	lsls	r2, r2, #3
100033fe:	1c0f      	adds	r7, r1, #0
10003400:	00c0      	lsls	r0, r0, #3
10003402:	46a1      	mov	r9, r4
10003404:	4692      	mov	sl, r2
10003406:	1bab      	subs	r3, r5, r6
10003408:	4561      	cmp	r1, ip
1000340a:	d100      	bne.n	1000340e <__aeabi_dadd+0x42>
1000340c:	e0a4      	b.n	10003558 <__aeabi_dadd+0x18c>
1000340e:	2b00      	cmp	r3, #0
10003410:	dc00      	bgt.n	10003414 <__aeabi_dadd+0x48>
10003412:	e0f5      	b.n	10003600 <__aeabi_dadd+0x234>
10003414:	2e00      	cmp	r6, #0
10003416:	d10c      	bne.n	10003432 <__aeabi_dadd+0x66>
10003418:	1c26      	adds	r6, r4, #0
1000341a:	4316      	orrs	r6, r2
1000341c:	d100      	bne.n	10003420 <__aeabi_dadd+0x54>
1000341e:	e0c2      	b.n	100035a6 <__aeabi_dadd+0x1da>
10003420:	3b01      	subs	r3, #1
10003422:	2b00      	cmp	r3, #0
10003424:	d000      	beq.n	10003428 <__aeabi_dadd+0x5c>
10003426:	e146      	b.n	100036b6 <__aeabi_dadd+0x2ea>
10003428:	465c      	mov	r4, fp
1000342a:	464b      	mov	r3, r9
1000342c:	1a82      	subs	r2, r0, r2
1000342e:	1ae7      	subs	r7, r4, r3
10003430:	e021      	b.n	10003476 <__aeabi_dadd+0xaa>
10003432:	4ed2      	ldr	r6, [pc, #840]	; (1000377c <__aeabi_dadd+0x3b0>)
10003434:	42b5      	cmp	r5, r6
10003436:	d100      	bne.n	1000343a <__aeabi_dadd+0x6e>
10003438:	e0cd      	b.n	100035d6 <__aeabi_dadd+0x20a>
1000343a:	2480      	movs	r4, #128	; 0x80
1000343c:	464a      	mov	r2, r9
1000343e:	0427      	lsls	r7, r4, #16
10003440:	433a      	orrs	r2, r7
10003442:	4691      	mov	r9, r2
10003444:	2b38      	cmp	r3, #56	; 0x38
10003446:	dd00      	ble.n	1000344a <__aeabi_dadd+0x7e>
10003448:	e10f      	b.n	1000366a <__aeabi_dadd+0x29e>
1000344a:	2b1f      	cmp	r3, #31
1000344c:	dd00      	ble.n	10003450 <__aeabi_dadd+0x84>
1000344e:	e150      	b.n	100036f2 <__aeabi_dadd+0x326>
10003450:	2620      	movs	r6, #32
10003452:	1af6      	subs	r6, r6, r3
10003454:	464c      	mov	r4, r9
10003456:	4652      	mov	r2, sl
10003458:	4657      	mov	r7, sl
1000345a:	40b4      	lsls	r4, r6
1000345c:	40b7      	lsls	r7, r6
1000345e:	40da      	lsrs	r2, r3
10003460:	4322      	orrs	r2, r4
10003462:	1c3e      	adds	r6, r7, #0
10003464:	464c      	mov	r4, r9
10003466:	1e77      	subs	r7, r6, #1
10003468:	41be      	sbcs	r6, r7
1000346a:	40dc      	lsrs	r4, r3
1000346c:	4332      	orrs	r2, r6
1000346e:	1c26      	adds	r6, r4, #0
10003470:	465b      	mov	r3, fp
10003472:	1a82      	subs	r2, r0, r2
10003474:	1b9f      	subs	r7, r3, r6
10003476:	4290      	cmp	r0, r2
10003478:	4180      	sbcs	r0, r0
1000347a:	4246      	negs	r6, r0
1000347c:	1bbb      	subs	r3, r7, r6
1000347e:	1c14      	adds	r4, r2, #0
10003480:	1c2e      	adds	r6, r5, #0
10003482:	1c0f      	adds	r7, r1, #0
10003484:	0218      	lsls	r0, r3, #8
10003486:	d400      	bmi.n	1000348a <__aeabi_dadd+0xbe>
10003488:	e0ae      	b.n	100035e8 <__aeabi_dadd+0x21c>
1000348a:	025d      	lsls	r5, r3, #9
1000348c:	0a69      	lsrs	r1, r5, #9
1000348e:	4688      	mov	r8, r1
10003490:	4642      	mov	r2, r8
10003492:	2a00      	cmp	r2, #0
10003494:	d100      	bne.n	10003498 <__aeabi_dadd+0xcc>
10003496:	e0d9      	b.n	1000364c <__aeabi_dadd+0x280>
10003498:	4640      	mov	r0, r8
1000349a:	f001 fe99 	bl	100051d0 <__clzsi2>
1000349e:	1c05      	adds	r5, r0, #0
100034a0:	3d08      	subs	r5, #8
100034a2:	2d1f      	cmp	r5, #31
100034a4:	dd00      	ble.n	100034a8 <__aeabi_dadd+0xdc>
100034a6:	e0da      	b.n	1000365e <__aeabi_dadd+0x292>
100034a8:	2228      	movs	r2, #40	; 0x28
100034aa:	1a13      	subs	r3, r2, r0
100034ac:	1c20      	adds	r0, r4, #0
100034ae:	4641      	mov	r1, r8
100034b0:	40d8      	lsrs	r0, r3
100034b2:	40a9      	lsls	r1, r5
100034b4:	1c03      	adds	r3, r0, #0
100034b6:	430b      	orrs	r3, r1
100034b8:	40ac      	lsls	r4, r5
100034ba:	42ae      	cmp	r6, r5
100034bc:	dd00      	ble.n	100034c0 <__aeabi_dadd+0xf4>
100034be:	e090      	b.n	100035e2 <__aeabi_dadd+0x216>
100034c0:	1bae      	subs	r6, r5, r6
100034c2:	1c71      	adds	r1, r6, #1
100034c4:	291f      	cmp	r1, #31
100034c6:	dd00      	ble.n	100034ca <__aeabi_dadd+0xfe>
100034c8:	e100      	b.n	100036cc <__aeabi_dadd+0x300>
100034ca:	201f      	movs	r0, #31
100034cc:	1b85      	subs	r5, r0, r6
100034ce:	1c1a      	adds	r2, r3, #0
100034d0:	1c20      	adds	r0, r4, #0
100034d2:	40aa      	lsls	r2, r5
100034d4:	40c8      	lsrs	r0, r1
100034d6:	40ac      	lsls	r4, r5
100034d8:	4310      	orrs	r0, r2
100034da:	1e66      	subs	r6, r4, #1
100034dc:	41b4      	sbcs	r4, r6
100034de:	4304      	orrs	r4, r0
100034e0:	40cb      	lsrs	r3, r1
100034e2:	2201      	movs	r2, #1
100034e4:	2600      	movs	r6, #0
100034e6:	200f      	movs	r0, #15
100034e8:	4020      	ands	r0, r4
100034ea:	2804      	cmp	r0, #4
100034ec:	d064      	beq.n	100035b8 <__aeabi_dadd+0x1ec>
100034ee:	1d20      	adds	r0, r4, #4
100034f0:	42a0      	cmp	r0, r4
100034f2:	41a4      	sbcs	r4, r4
100034f4:	4265      	negs	r5, r4
100034f6:	2180      	movs	r1, #128	; 0x80
100034f8:	195b      	adds	r3, r3, r5
100034fa:	2401      	movs	r4, #1
100034fc:	040d      	lsls	r5, r1, #16
100034fe:	401d      	ands	r5, r3
10003500:	4027      	ands	r7, r4
10003502:	2d00      	cmp	r5, #0
10003504:	d007      	beq.n	10003516 <__aeabi_dadd+0x14a>
10003506:	4e9d      	ldr	r6, [pc, #628]	; (1000377c <__aeabi_dadd+0x3b0>)
10003508:	42b2      	cmp	r2, r6
1000350a:	d100      	bne.n	1000350e <__aeabi_dadd+0x142>
1000350c:	e09a      	b.n	10003644 <__aeabi_dadd+0x278>
1000350e:	499c      	ldr	r1, [pc, #624]	; (10003780 <__aeabi_dadd+0x3b4>)
10003510:	1c16      	adds	r6, r2, #0
10003512:	400b      	ands	r3, r1
10003514:	3201      	adds	r2, #1
10003516:	075c      	lsls	r4, r3, #29
10003518:	08c0      	lsrs	r0, r0, #3
1000351a:	0552      	lsls	r2, r2, #21
1000351c:	4304      	orrs	r4, r0
1000351e:	08db      	lsrs	r3, r3, #3
10003520:	0d55      	lsrs	r5, r2, #21
10003522:	2d01      	cmp	r5, #1
10003524:	dd62      	ble.n	100035ec <__aeabi_dadd+0x220>
10003526:	031b      	lsls	r3, r3, #12
10003528:	0576      	lsls	r6, r6, #21
1000352a:	0b1b      	lsrs	r3, r3, #12
1000352c:	0d76      	lsrs	r6, r6, #21
1000352e:	2000      	movs	r0, #0
10003530:	2100      	movs	r1, #0
10003532:	0d09      	lsrs	r1, r1, #20
10003534:	1c20      	adds	r0, r4, #0
10003536:	050a      	lsls	r2, r1, #20
10003538:	4c92      	ldr	r4, [pc, #584]	; (10003784 <__aeabi_dadd+0x3b8>)
1000353a:	4313      	orrs	r3, r2
1000353c:	0576      	lsls	r6, r6, #21
1000353e:	0875      	lsrs	r5, r6, #1
10003540:	401c      	ands	r4, r3
10003542:	432c      	orrs	r4, r5
10003544:	0063      	lsls	r3, r4, #1
10003546:	07ff      	lsls	r7, r7, #31
10003548:	0859      	lsrs	r1, r3, #1
1000354a:	4339      	orrs	r1, r7
1000354c:	bc3c      	pop	{r2, r3, r4, r5}
1000354e:	4690      	mov	r8, r2
10003550:	4699      	mov	r9, r3
10003552:	46a2      	mov	sl, r4
10003554:	46ab      	mov	fp, r5
10003556:	bdf8      	pop	{r3, r4, r5, r6, r7, pc}
10003558:	2b00      	cmp	r3, #0
1000355a:	dc00      	bgt.n	1000355e <__aeabi_dadd+0x192>
1000355c:	e091      	b.n	10003682 <__aeabi_dadd+0x2b6>
1000355e:	2e00      	cmp	r6, #0
10003560:	d031      	beq.n	100035c6 <__aeabi_dadd+0x1fa>
10003562:	4e86      	ldr	r6, [pc, #536]	; (1000377c <__aeabi_dadd+0x3b0>)
10003564:	42b5      	cmp	r5, r6
10003566:	d100      	bne.n	1000356a <__aeabi_dadd+0x19e>
10003568:	e0a9      	b.n	100036be <__aeabi_dadd+0x2f2>
1000356a:	2480      	movs	r4, #128	; 0x80
1000356c:	464e      	mov	r6, r9
1000356e:	0422      	lsls	r2, r4, #16
10003570:	4316      	orrs	r6, r2
10003572:	46b1      	mov	r9, r6
10003574:	2b38      	cmp	r3, #56	; 0x38
10003576:	dd00      	ble.n	1000357a <__aeabi_dadd+0x1ae>
10003578:	e118      	b.n	100037ac <__aeabi_dadd+0x3e0>
1000357a:	2b1f      	cmp	r3, #31
1000357c:	dd00      	ble.n	10003580 <__aeabi_dadd+0x1b4>
1000357e:	e173      	b.n	10003868 <__aeabi_dadd+0x49c>
10003580:	2620      	movs	r6, #32
10003582:	1af6      	subs	r6, r6, r3
10003584:	464a      	mov	r2, r9
10003586:	40b2      	lsls	r2, r6
10003588:	4690      	mov	r8, r2
1000358a:	4652      	mov	r2, sl
1000358c:	4644      	mov	r4, r8
1000358e:	40da      	lsrs	r2, r3
10003590:	4322      	orrs	r2, r4
10003592:	4654      	mov	r4, sl
10003594:	40b4      	lsls	r4, r6
10003596:	1c26      	adds	r6, r4, #0
10003598:	1e74      	subs	r4, r6, #1
1000359a:	41a6      	sbcs	r6, r4
1000359c:	464c      	mov	r4, r9
1000359e:	4332      	orrs	r2, r6
100035a0:	40dc      	lsrs	r4, r3
100035a2:	1812      	adds	r2, r2, r0
100035a4:	e0f6      	b.n	10003794 <__aeabi_dadd+0x3c8>
100035a6:	1c04      	adds	r4, r0, #0
100035a8:	200f      	movs	r0, #15
100035aa:	1c6a      	adds	r2, r5, #1
100035ac:	465b      	mov	r3, fp
100035ae:	1c2e      	adds	r6, r5, #0
100035b0:	1c0f      	adds	r7, r1, #0
100035b2:	4020      	ands	r0, r4
100035b4:	2804      	cmp	r0, #4
100035b6:	d19a      	bne.n	100034ee <__aeabi_dadd+0x122>
100035b8:	2580      	movs	r5, #128	; 0x80
100035ba:	042d      	lsls	r5, r5, #16
100035bc:	2101      	movs	r1, #1
100035be:	401d      	ands	r5, r3
100035c0:	400f      	ands	r7, r1
100035c2:	1c20      	adds	r0, r4, #0
100035c4:	e79d      	b.n	10003502 <__aeabi_dadd+0x136>
100035c6:	4314      	orrs	r4, r2
100035c8:	d000      	beq.n	100035cc <__aeabi_dadd+0x200>
100035ca:	e0dd      	b.n	10003788 <__aeabi_dadd+0x3bc>
100035cc:	1c6a      	adds	r2, r5, #1
100035ce:	465b      	mov	r3, fp
100035d0:	1c04      	adds	r4, r0, #0
100035d2:	1c2e      	adds	r6, r5, #0
100035d4:	e787      	b.n	100034e6 <__aeabi_dadd+0x11a>
100035d6:	2180      	movs	r1, #128	; 0x80
100035d8:	465b      	mov	r3, fp
100035da:	1c04      	adds	r4, r0, #0
100035dc:	010a      	lsls	r2, r1, #4
100035de:	1c2e      	adds	r6, r5, #0
100035e0:	e781      	b.n	100034e6 <__aeabi_dadd+0x11a>
100035e2:	1b76      	subs	r6, r6, r5
100035e4:	4d66      	ldr	r5, [pc, #408]	; (10003780 <__aeabi_dadd+0x3b4>)
100035e6:	402b      	ands	r3, r5
100035e8:	1c72      	adds	r2, r6, #1
100035ea:	e77c      	b.n	100034e6 <__aeabi_dadd+0x11a>
100035ec:	1c21      	adds	r1, r4, #0
100035ee:	4319      	orrs	r1, r3
100035f0:	d100      	bne.n	100035f4 <__aeabi_dadd+0x228>
100035f2:	e267      	b.n	10003ac4 <__aeabi_dadd+0x6f8>
100035f4:	2e00      	cmp	r6, #0
100035f6:	d041      	beq.n	1000367c <__aeabi_dadd+0x2b0>
100035f8:	2080      	movs	r0, #128	; 0x80
100035fa:	0302      	lsls	r2, r0, #12
100035fc:	4313      	orrs	r3, r2
100035fe:	e792      	b.n	10003526 <__aeabi_dadd+0x15a>
10003600:	2b00      	cmp	r3, #0
10003602:	d000      	beq.n	10003606 <__aeabi_dadd+0x23a>
10003604:	e088      	b.n	10003718 <__aeabi_dadd+0x34c>
10003606:	1c69      	adds	r1, r5, #1
10003608:	054e      	lsls	r6, r1, #21
1000360a:	0d74      	lsrs	r4, r6, #21
1000360c:	2c01      	cmp	r4, #1
1000360e:	dc00      	bgt.n	10003612 <__aeabi_dadd+0x246>
10003610:	e11a      	b.n	10003848 <__aeabi_dadd+0x47c>
10003612:	465b      	mov	r3, fp
10003614:	1c16      	adds	r6, r2, #0
10003616:	464c      	mov	r4, r9
10003618:	1a82      	subs	r2, r0, r2
1000361a:	1b19      	subs	r1, r3, r4
1000361c:	4290      	cmp	r0, r2
1000361e:	419b      	sbcs	r3, r3
10003620:	425b      	negs	r3, r3
10003622:	1ac9      	subs	r1, r1, r3
10003624:	4688      	mov	r8, r1
10003626:	020b      	lsls	r3, r1, #8
10003628:	d400      	bmi.n	1000362c <__aeabi_dadd+0x260>
1000362a:	e09e      	b.n	1000376a <__aeabi_dadd+0x39e>
1000362c:	1a37      	subs	r7, r6, r0
1000362e:	45ba      	cmp	sl, r7
10003630:	4192      	sbcs	r2, r2
10003632:	465e      	mov	r6, fp
10003634:	1ba4      	subs	r4, r4, r6
10003636:	4253      	negs	r3, r2
10003638:	1ae1      	subs	r1, r4, r3
1000363a:	4688      	mov	r8, r1
1000363c:	1c3c      	adds	r4, r7, #0
1000363e:	1c2e      	adds	r6, r5, #0
10003640:	4667      	mov	r7, ip
10003642:	e725      	b.n	10003490 <__aeabi_dadd+0xc4>
10003644:	1c16      	adds	r6, r2, #0
10003646:	2300      	movs	r3, #0
10003648:	2400      	movs	r4, #0
1000364a:	e770      	b.n	1000352e <__aeabi_dadd+0x162>
1000364c:	1c20      	adds	r0, r4, #0
1000364e:	f001 fdbf 	bl	100051d0 <__clzsi2>
10003652:	3020      	adds	r0, #32
10003654:	1c05      	adds	r5, r0, #0
10003656:	3d08      	subs	r5, #8
10003658:	2d1f      	cmp	r5, #31
1000365a:	dc00      	bgt.n	1000365e <__aeabi_dadd+0x292>
1000365c:	e724      	b.n	100034a8 <__aeabi_dadd+0xdc>
1000365e:	1c03      	adds	r3, r0, #0
10003660:	3b28      	subs	r3, #40	; 0x28
10003662:	409c      	lsls	r4, r3
10003664:	1c23      	adds	r3, r4, #0
10003666:	2400      	movs	r4, #0
10003668:	e727      	b.n	100034ba <__aeabi_dadd+0xee>
1000366a:	464a      	mov	r2, r9
1000366c:	4653      	mov	r3, sl
1000366e:	431a      	orrs	r2, r3
10003670:	2600      	movs	r6, #0
10003672:	2a00      	cmp	r2, #0
10003674:	d100      	bne.n	10003678 <__aeabi_dadd+0x2ac>
10003676:	e6fb      	b.n	10003470 <__aeabi_dadd+0xa4>
10003678:	2201      	movs	r2, #1
1000367a:	e6f9      	b.n	10003470 <__aeabi_dadd+0xa4>
1000367c:	031d      	lsls	r5, r3, #12
1000367e:	0b2b      	lsrs	r3, r5, #12
10003680:	e755      	b.n	1000352e <__aeabi_dadd+0x162>
10003682:	2b00      	cmp	r3, #0
10003684:	d000      	beq.n	10003688 <__aeabi_dadd+0x2bc>
10003686:	e104      	b.n	10003892 <__aeabi_dadd+0x4c6>
10003688:	1c6e      	adds	r6, r5, #1
1000368a:	0574      	lsls	r4, r6, #21
1000368c:	0d63      	lsrs	r3, r4, #21
1000368e:	2b01      	cmp	r3, #1
10003690:	dc00      	bgt.n	10003694 <__aeabi_dadd+0x2c8>
10003692:	e0aa      	b.n	100037ea <__aeabi_dadd+0x41e>
10003694:	4939      	ldr	r1, [pc, #228]	; (1000377c <__aeabi_dadd+0x3b0>)
10003696:	428e      	cmp	r6, r1
10003698:	d100      	bne.n	1000369c <__aeabi_dadd+0x2d0>
1000369a:	e130      	b.n	100038fe <__aeabi_dadd+0x532>
1000369c:	1811      	adds	r1, r2, r0
1000369e:	4281      	cmp	r1, r0
100036a0:	4180      	sbcs	r0, r0
100036a2:	464b      	mov	r3, r9
100036a4:	4242      	negs	r2, r0
100036a6:	445b      	add	r3, fp
100036a8:	189b      	adds	r3, r3, r2
100036aa:	07dc      	lsls	r4, r3, #31
100036ac:	0849      	lsrs	r1, r1, #1
100036ae:	430c      	orrs	r4, r1
100036b0:	085b      	lsrs	r3, r3, #1
100036b2:	1caa      	adds	r2, r5, #2
100036b4:	e717      	b.n	100034e6 <__aeabi_dadd+0x11a>
100036b6:	4f31      	ldr	r7, [pc, #196]	; (1000377c <__aeabi_dadd+0x3b0>)
100036b8:	42bd      	cmp	r5, r7
100036ba:	d000      	beq.n	100036be <__aeabi_dadd+0x2f2>
100036bc:	e6c2      	b.n	10003444 <__aeabi_dadd+0x78>
100036be:	1c04      	adds	r4, r0, #0
100036c0:	2080      	movs	r0, #128	; 0x80
100036c2:	465b      	mov	r3, fp
100036c4:	1c0f      	adds	r7, r1, #0
100036c6:	0102      	lsls	r2, r0, #4
100036c8:	1c2e      	adds	r6, r5, #0
100036ca:	e70c      	b.n	100034e6 <__aeabi_dadd+0x11a>
100036cc:	1c30      	adds	r0, r6, #0
100036ce:	381f      	subs	r0, #31
100036d0:	1c1a      	adds	r2, r3, #0
100036d2:	40c2      	lsrs	r2, r0
100036d4:	1c15      	adds	r5, r2, #0
100036d6:	2920      	cmp	r1, #32
100036d8:	d100      	bne.n	100036dc <__aeabi_dadd+0x310>
100036da:	e082      	b.n	100037e2 <__aeabi_dadd+0x416>
100036dc:	213f      	movs	r1, #63	; 0x3f
100036de:	1b8e      	subs	r6, r1, r6
100036e0:	40b3      	lsls	r3, r6
100036e2:	431c      	orrs	r4, r3
100036e4:	1e63      	subs	r3, r4, #1
100036e6:	419c      	sbcs	r4, r3
100036e8:	432c      	orrs	r4, r5
100036ea:	2201      	movs	r2, #1
100036ec:	2300      	movs	r3, #0
100036ee:	2600      	movs	r6, #0
100036f0:	e6f9      	b.n	100034e6 <__aeabi_dadd+0x11a>
100036f2:	1c1c      	adds	r4, r3, #0
100036f4:	3c20      	subs	r4, #32
100036f6:	464f      	mov	r7, r9
100036f8:	40e7      	lsrs	r7, r4
100036fa:	1c3e      	adds	r6, r7, #0
100036fc:	2b20      	cmp	r3, #32
100036fe:	d072      	beq.n	100037e6 <__aeabi_dadd+0x41a>
10003700:	2240      	movs	r2, #64	; 0x40
10003702:	1ad4      	subs	r4, r2, r3
10003704:	464b      	mov	r3, r9
10003706:	40a3      	lsls	r3, r4
10003708:	1c1a      	adds	r2, r3, #0
1000370a:	4657      	mov	r7, sl
1000370c:	433a      	orrs	r2, r7
1000370e:	1e53      	subs	r3, r2, #1
10003710:	419a      	sbcs	r2, r3
10003712:	4332      	orrs	r2, r6
10003714:	2600      	movs	r6, #0
10003716:	e6ab      	b.n	10003470 <__aeabi_dadd+0xa4>
10003718:	425f      	negs	r7, r3
1000371a:	2d00      	cmp	r5, #0
1000371c:	d050      	beq.n	100037c0 <__aeabi_dadd+0x3f4>
1000371e:	4d17      	ldr	r5, [pc, #92]	; (1000377c <__aeabi_dadd+0x3b0>)
10003720:	42ae      	cmp	r6, r5
10003722:	d100      	bne.n	10003726 <__aeabi_dadd+0x35a>
10003724:	e155      	b.n	100039d2 <__aeabi_dadd+0x606>
10003726:	2480      	movs	r4, #128	; 0x80
10003728:	465a      	mov	r2, fp
1000372a:	0421      	lsls	r1, r4, #16
1000372c:	430a      	orrs	r2, r1
1000372e:	4693      	mov	fp, r2
10003730:	2f38      	cmp	r7, #56	; 0x38
10003732:	dd00      	ble.n	10003736 <__aeabi_dadd+0x36a>
10003734:	e0da      	b.n	100038ec <__aeabi_dadd+0x520>
10003736:	2f1f      	cmp	r7, #31
10003738:	dd00      	ble.n	1000373c <__aeabi_dadd+0x370>
1000373a:	e178      	b.n	10003a2e <__aeabi_dadd+0x662>
1000373c:	2120      	movs	r1, #32
1000373e:	1bcc      	subs	r4, r1, r7
10003740:	1c05      	adds	r5, r0, #0
10003742:	465a      	mov	r2, fp
10003744:	40a2      	lsls	r2, r4
10003746:	40fd      	lsrs	r5, r7
10003748:	40a0      	lsls	r0, r4
1000374a:	4315      	orrs	r5, r2
1000374c:	465b      	mov	r3, fp
1000374e:	1e42      	subs	r2, r0, #1
10003750:	4190      	sbcs	r0, r2
10003752:	4328      	orrs	r0, r5
10003754:	40fb      	lsrs	r3, r7
10003756:	4657      	mov	r7, sl
10003758:	1a3c      	subs	r4, r7, r0
1000375a:	45a2      	cmp	sl, r4
1000375c:	4192      	sbcs	r2, r2
1000375e:	4648      	mov	r0, r9
10003760:	1ac1      	subs	r1, r0, r3
10003762:	4255      	negs	r5, r2
10003764:	1b4b      	subs	r3, r1, r5
10003766:	4667      	mov	r7, ip
10003768:	e68c      	b.n	10003484 <__aeabi_dadd+0xb8>
1000376a:	1c08      	adds	r0, r1, #0
1000376c:	4310      	orrs	r0, r2
1000376e:	d130      	bne.n	100037d2 <__aeabi_dadd+0x406>
10003770:	2700      	movs	r7, #0
10003772:	2201      	movs	r2, #1
10003774:	2300      	movs	r3, #0
10003776:	2004      	movs	r0, #4
10003778:	2600      	movs	r6, #0
1000377a:	e6cc      	b.n	10003516 <__aeabi_dadd+0x14a>
1000377c:	000007ff 	.word	0x000007ff
10003780:	ff7fffff 	.word	0xff7fffff
10003784:	800fffff 	.word	0x800fffff
10003788:	3b01      	subs	r3, #1
1000378a:	2b00      	cmp	r3, #0
1000378c:	d124      	bne.n	100037d8 <__aeabi_dadd+0x40c>
1000378e:	4653      	mov	r3, sl
10003790:	181a      	adds	r2, r3, r0
10003792:	464c      	mov	r4, r9
10003794:	4282      	cmp	r2, r0
10003796:	4180      	sbcs	r0, r0
10003798:	445c      	add	r4, fp
1000379a:	4243      	negs	r3, r0
1000379c:	18e3      	adds	r3, r4, r3
1000379e:	1c2e      	adds	r6, r5, #0
100037a0:	1c14      	adds	r4, r2, #0
100037a2:	0218      	lsls	r0, r3, #8
100037a4:	d43e      	bmi.n	10003824 <__aeabi_dadd+0x458>
100037a6:	1c72      	adds	r2, r6, #1
100037a8:	1c0f      	adds	r7, r1, #0
100037aa:	e69c      	b.n	100034e6 <__aeabi_dadd+0x11a>
100037ac:	464a      	mov	r2, r9
100037ae:	4653      	mov	r3, sl
100037b0:	431a      	orrs	r2, r3
100037b2:	2400      	movs	r4, #0
100037b4:	2a00      	cmp	r2, #0
100037b6:	d100      	bne.n	100037ba <__aeabi_dadd+0x3ee>
100037b8:	e6f3      	b.n	100035a2 <__aeabi_dadd+0x1d6>
100037ba:	2201      	movs	r2, #1
100037bc:	1812      	adds	r2, r2, r0
100037be:	e7e9      	b.n	10003794 <__aeabi_dadd+0x3c8>
100037c0:	465b      	mov	r3, fp
100037c2:	4303      	orrs	r3, r0
100037c4:	d000      	beq.n	100037c8 <__aeabi_dadd+0x3fc>
100037c6:	e083      	b.n	100038d0 <__aeabi_dadd+0x504>
100037c8:	1c23      	adds	r3, r4, #0
100037ca:	1c72      	adds	r2, r6, #1
100037cc:	4654      	mov	r4, sl
100037ce:	4667      	mov	r7, ip
100037d0:	e689      	b.n	100034e6 <__aeabi_dadd+0x11a>
100037d2:	1c14      	adds	r4, r2, #0
100037d4:	1c2e      	adds	r6, r5, #0
100037d6:	e65b      	b.n	10003490 <__aeabi_dadd+0xc4>
100037d8:	4ecd      	ldr	r6, [pc, #820]	; (10003b10 <__aeabi_dadd+0x744>)
100037da:	42b5      	cmp	r5, r6
100037dc:	d000      	beq.n	100037e0 <__aeabi_dadd+0x414>
100037de:	e6c9      	b.n	10003574 <__aeabi_dadd+0x1a8>
100037e0:	e76d      	b.n	100036be <__aeabi_dadd+0x2f2>
100037e2:	2300      	movs	r3, #0
100037e4:	e77d      	b.n	100036e2 <__aeabi_dadd+0x316>
100037e6:	2200      	movs	r2, #0
100037e8:	e78f      	b.n	1000370a <__aeabi_dadd+0x33e>
100037ea:	465e      	mov	r6, fp
100037ec:	4306      	orrs	r6, r0
100037ee:	2d00      	cmp	r5, #0
100037f0:	d000      	beq.n	100037f4 <__aeabi_dadd+0x428>
100037f2:	e0f4      	b.n	100039de <__aeabi_dadd+0x612>
100037f4:	2e00      	cmp	r6, #0
100037f6:	d100      	bne.n	100037fa <__aeabi_dadd+0x42e>
100037f8:	e14c      	b.n	10003a94 <__aeabi_dadd+0x6c8>
100037fa:	464b      	mov	r3, r9
100037fc:	4313      	orrs	r3, r2
100037fe:	d100      	bne.n	10003802 <__aeabi_dadd+0x436>
10003800:	e17e      	b.n	10003b00 <__aeabi_dadd+0x734>
10003802:	1815      	adds	r5, r2, r0
10003804:	464e      	mov	r6, r9
10003806:	4285      	cmp	r5, r0
10003808:	4180      	sbcs	r0, r0
1000380a:	445e      	add	r6, fp
1000380c:	4242      	negs	r2, r0
1000380e:	18b3      	adds	r3, r6, r2
10003810:	021e      	lsls	r6, r3, #8
10003812:	d400      	bmi.n	10003816 <__aeabi_dadd+0x44a>
10003814:	e182      	b.n	10003b1c <__aeabi_dadd+0x750>
10003816:	4fbf      	ldr	r7, [pc, #764]	; (10003b14 <__aeabi_dadd+0x748>)
10003818:	1c2c      	adds	r4, r5, #0
1000381a:	403b      	ands	r3, r7
1000381c:	2202      	movs	r2, #2
1000381e:	1c0f      	adds	r7, r1, #0
10003820:	2601      	movs	r6, #1
10003822:	e660      	b.n	100034e6 <__aeabi_dadd+0x11a>
10003824:	4dba      	ldr	r5, [pc, #744]	; (10003b10 <__aeabi_dadd+0x744>)
10003826:	1c70      	adds	r0, r6, #1
10003828:	42a8      	cmp	r0, r5
1000382a:	d04b      	beq.n	100038c4 <__aeabi_dadd+0x4f8>
1000382c:	4fb9      	ldr	r7, [pc, #740]	; (10003b14 <__aeabi_dadd+0x748>)
1000382e:	2501      	movs	r5, #1
10003830:	4025      	ands	r5, r4
10003832:	0862      	lsrs	r2, r4, #1
10003834:	403b      	ands	r3, r7
10003836:	1c2c      	adds	r4, r5, #0
10003838:	07df      	lsls	r7, r3, #31
1000383a:	4314      	orrs	r4, r2
1000383c:	433c      	orrs	r4, r7
1000383e:	1cb2      	adds	r2, r6, #2
10003840:	085b      	lsrs	r3, r3, #1
10003842:	1c06      	adds	r6, r0, #0
10003844:	1c0f      	adds	r7, r1, #0
10003846:	e64e      	b.n	100034e6 <__aeabi_dadd+0x11a>
10003848:	465e      	mov	r6, fp
1000384a:	4306      	orrs	r6, r0
1000384c:	2d00      	cmp	r5, #0
1000384e:	d12c      	bne.n	100038aa <__aeabi_dadd+0x4de>
10003850:	2e00      	cmp	r6, #0
10003852:	d000      	beq.n	10003856 <__aeabi_dadd+0x48a>
10003854:	e07d      	b.n	10003952 <__aeabi_dadd+0x586>
10003856:	464e      	mov	r6, r9
10003858:	1c14      	adds	r4, r2, #0
1000385a:	4316      	orrs	r6, r2
1000385c:	d088      	beq.n	10003770 <__aeabi_dadd+0x3a4>
1000385e:	464b      	mov	r3, r9
10003860:	4667      	mov	r7, ip
10003862:	2201      	movs	r2, #1
10003864:	2600      	movs	r6, #0
10003866:	e63e      	b.n	100034e6 <__aeabi_dadd+0x11a>
10003868:	1c1e      	adds	r6, r3, #0
1000386a:	3e20      	subs	r6, #32
1000386c:	464c      	mov	r4, r9
1000386e:	40f4      	lsrs	r4, r6
10003870:	1c26      	adds	r6, r4, #0
10003872:	2b20      	cmp	r3, #32
10003874:	d100      	bne.n	10003878 <__aeabi_dadd+0x4ac>
10003876:	e0d8      	b.n	10003a2a <__aeabi_dadd+0x65e>
10003878:	2240      	movs	r2, #64	; 0x40
1000387a:	1ad4      	subs	r4, r2, r3
1000387c:	464b      	mov	r3, r9
1000387e:	40a3      	lsls	r3, r4
10003880:	1c1a      	adds	r2, r3, #0
10003882:	4654      	mov	r4, sl
10003884:	4322      	orrs	r2, r4
10003886:	1e53      	subs	r3, r2, #1
10003888:	419a      	sbcs	r2, r3
1000388a:	4332      	orrs	r2, r6
1000388c:	2400      	movs	r4, #0
1000388e:	1812      	adds	r2, r2, r0
10003890:	e780      	b.n	10003794 <__aeabi_dadd+0x3c8>
10003892:	425b      	negs	r3, r3
10003894:	2d00      	cmp	r5, #0
10003896:	d137      	bne.n	10003908 <__aeabi_dadd+0x53c>
10003898:	465c      	mov	r4, fp
1000389a:	4304      	orrs	r4, r0
1000389c:	d000      	beq.n	100038a0 <__aeabi_dadd+0x4d4>
1000389e:	e0d7      	b.n	10003a50 <__aeabi_dadd+0x684>
100038a0:	1c72      	adds	r2, r6, #1
100038a2:	464b      	mov	r3, r9
100038a4:	4654      	mov	r4, sl
100038a6:	1c0f      	adds	r7, r1, #0
100038a8:	e61d      	b.n	100034e6 <__aeabi_dadd+0x11a>
100038aa:	2e00      	cmp	r6, #0
100038ac:	d16e      	bne.n	1000398c <__aeabi_dadd+0x5c0>
100038ae:	464b      	mov	r3, r9
100038b0:	1c14      	adds	r4, r2, #0
100038b2:	4313      	orrs	r3, r2
100038b4:	d100      	bne.n	100038b8 <__aeabi_dadd+0x4ec>
100038b6:	e0dc      	b.n	10003a72 <__aeabi_dadd+0x6a6>
100038b8:	2580      	movs	r5, #128	; 0x80
100038ba:	464b      	mov	r3, r9
100038bc:	4667      	mov	r7, ip
100038be:	012a      	lsls	r2, r5, #4
100038c0:	4e93      	ldr	r6, [pc, #588]	; (10003b10 <__aeabi_dadd+0x744>)
100038c2:	e610      	b.n	100034e6 <__aeabi_dadd+0x11a>
100038c4:	2180      	movs	r1, #128	; 0x80
100038c6:	1c06      	adds	r6, r0, #0
100038c8:	010a      	lsls	r2, r1, #4
100038ca:	2300      	movs	r3, #0
100038cc:	2004      	movs	r0, #4
100038ce:	e622      	b.n	10003516 <__aeabi_dadd+0x14a>
100038d0:	3f01      	subs	r7, #1
100038d2:	2f00      	cmp	r7, #0
100038d4:	d179      	bne.n	100039ca <__aeabi_dadd+0x5fe>
100038d6:	1a17      	subs	r7, r2, r0
100038d8:	465b      	mov	r3, fp
100038da:	45ba      	cmp	sl, r7
100038dc:	41ad      	sbcs	r5, r5
100038de:	4649      	mov	r1, r9
100038e0:	1aca      	subs	r2, r1, r3
100038e2:	4268      	negs	r0, r5
100038e4:	1c3c      	adds	r4, r7, #0
100038e6:	1a13      	subs	r3, r2, r0
100038e8:	4667      	mov	r7, ip
100038ea:	e5cb      	b.n	10003484 <__aeabi_dadd+0xb8>
100038ec:	465f      	mov	r7, fp
100038ee:	4307      	orrs	r7, r0
100038f0:	2300      	movs	r3, #0
100038f2:	2000      	movs	r0, #0
100038f4:	2f00      	cmp	r7, #0
100038f6:	d100      	bne.n	100038fa <__aeabi_dadd+0x52e>
100038f8:	e72d      	b.n	10003756 <__aeabi_dadd+0x38a>
100038fa:	2001      	movs	r0, #1
100038fc:	e72b      	b.n	10003756 <__aeabi_dadd+0x38a>
100038fe:	2580      	movs	r5, #128	; 0x80
10003900:	012a      	lsls	r2, r5, #4
10003902:	2300      	movs	r3, #0
10003904:	2004      	movs	r0, #4
10003906:	e606      	b.n	10003516 <__aeabi_dadd+0x14a>
10003908:	4d81      	ldr	r5, [pc, #516]	; (10003b10 <__aeabi_dadd+0x744>)
1000390a:	42ae      	cmp	r6, r5
1000390c:	d100      	bne.n	10003910 <__aeabi_dadd+0x544>
1000390e:	e0d3      	b.n	10003ab8 <__aeabi_dadd+0x6ec>
10003910:	2480      	movs	r4, #128	; 0x80
10003912:	465d      	mov	r5, fp
10003914:	0422      	lsls	r2, r4, #16
10003916:	4315      	orrs	r5, r2
10003918:	46ab      	mov	fp, r5
1000391a:	2b38      	cmp	r3, #56	; 0x38
1000391c:	dd00      	ble.n	10003920 <__aeabi_dadd+0x554>
1000391e:	e0b0      	b.n	10003a82 <__aeabi_dadd+0x6b6>
10003920:	2b1f      	cmp	r3, #31
10003922:	dd00      	ble.n	10003926 <__aeabi_dadd+0x55a>
10003924:	e0db      	b.n	10003ade <__aeabi_dadd+0x712>
10003926:	2520      	movs	r5, #32
10003928:	1aed      	subs	r5, r5, r3
1000392a:	1c02      	adds	r2, r0, #0
1000392c:	465c      	mov	r4, fp
1000392e:	40ac      	lsls	r4, r5
10003930:	40da      	lsrs	r2, r3
10003932:	40a8      	lsls	r0, r5
10003934:	1e45      	subs	r5, r0, #1
10003936:	41a8      	sbcs	r0, r5
10003938:	4322      	orrs	r2, r4
1000393a:	4302      	orrs	r2, r0
1000393c:	4658      	mov	r0, fp
1000393e:	40d8      	lsrs	r0, r3
10003940:	1c03      	adds	r3, r0, #0
10003942:	4655      	mov	r5, sl
10003944:	1954      	adds	r4, r2, r5
10003946:	4554      	cmp	r4, sl
10003948:	4192      	sbcs	r2, r2
1000394a:	444b      	add	r3, r9
1000394c:	4250      	negs	r0, r2
1000394e:	181b      	adds	r3, r3, r0
10003950:	e727      	b.n	100037a2 <__aeabi_dadd+0x3d6>
10003952:	464a      	mov	r2, r9
10003954:	4656      	mov	r6, sl
10003956:	4332      	orrs	r2, r6
10003958:	d100      	bne.n	1000395c <__aeabi_dadd+0x590>
1000395a:	e085      	b.n	10003a68 <__aeabi_dadd+0x69c>
1000395c:	1b85      	subs	r5, r0, r6
1000395e:	465b      	mov	r3, fp
10003960:	464c      	mov	r4, r9
10003962:	42a8      	cmp	r0, r5
10003964:	4192      	sbcs	r2, r2
10003966:	1b19      	subs	r1, r3, r4
10003968:	4256      	negs	r6, r2
1000396a:	1b8b      	subs	r3, r1, r6
1000396c:	021e      	lsls	r6, r3, #8
1000396e:	d400      	bmi.n	10003972 <__aeabi_dadd+0x5a6>
10003970:	e0ad      	b.n	10003ace <__aeabi_dadd+0x702>
10003972:	4657      	mov	r7, sl
10003974:	1a3d      	subs	r5, r7, r0
10003976:	465b      	mov	r3, fp
10003978:	45aa      	cmp	sl, r5
1000397a:	4189      	sbcs	r1, r1
1000397c:	1ae4      	subs	r4, r4, r3
1000397e:	424a      	negs	r2, r1
10003980:	1aa3      	subs	r3, r4, r2
10003982:	4667      	mov	r7, ip
10003984:	1c2c      	adds	r4, r5, #0
10003986:	2201      	movs	r2, #1
10003988:	2600      	movs	r6, #0
1000398a:	e5ac      	b.n	100034e6 <__aeabi_dadd+0x11a>
1000398c:	464d      	mov	r5, r9
1000398e:	1c16      	adds	r6, r2, #0
10003990:	4315      	orrs	r5, r2
10003992:	d044      	beq.n	10003a1e <__aeabi_dadd+0x652>
10003994:	465c      	mov	r4, fp
10003996:	2180      	movs	r1, #128	; 0x80
10003998:	08c0      	lsrs	r0, r0, #3
1000399a:	0762      	lsls	r2, r4, #29
1000399c:	08e3      	lsrs	r3, r4, #3
1000399e:	030d      	lsls	r5, r1, #12
100039a0:	4310      	orrs	r0, r2
100039a2:	422b      	tst	r3, r5
100039a4:	d100      	bne.n	100039a8 <__aeabi_dadd+0x5dc>
100039a6:	e081      	b.n	10003aac <__aeabi_dadd+0x6e0>
100039a8:	464c      	mov	r4, r9
100039aa:	08e1      	lsrs	r1, r4, #3
100039ac:	4229      	tst	r1, r5
100039ae:	d17d      	bne.n	10003aac <__aeabi_dadd+0x6e0>
100039b0:	08f7      	lsrs	r7, r6, #3
100039b2:	0766      	lsls	r6, r4, #29
100039b4:	433e      	orrs	r6, r7
100039b6:	1c0b      	adds	r3, r1, #0
100039b8:	4667      	mov	r7, ip
100039ba:	0f70      	lsrs	r0, r6, #29
100039bc:	00db      	lsls	r3, r3, #3
100039be:	2280      	movs	r2, #128	; 0x80
100039c0:	00f4      	lsls	r4, r6, #3
100039c2:	4303      	orrs	r3, r0
100039c4:	0112      	lsls	r2, r2, #4
100039c6:	4e52      	ldr	r6, [pc, #328]	; (10003b10 <__aeabi_dadd+0x744>)
100039c8:	e58d      	b.n	100034e6 <__aeabi_dadd+0x11a>
100039ca:	4d51      	ldr	r5, [pc, #324]	; (10003b10 <__aeabi_dadd+0x744>)
100039cc:	42ae      	cmp	r6, r5
100039ce:	d000      	beq.n	100039d2 <__aeabi_dadd+0x606>
100039d0:	e6ae      	b.n	10003730 <__aeabi_dadd+0x364>
100039d2:	2080      	movs	r0, #128	; 0x80
100039d4:	464b      	mov	r3, r9
100039d6:	4654      	mov	r4, sl
100039d8:	4667      	mov	r7, ip
100039da:	0102      	lsls	r2, r0, #4
100039dc:	e583      	b.n	100034e6 <__aeabi_dadd+0x11a>
100039de:	2e00      	cmp	r6, #0
100039e0:	d05e      	beq.n	10003aa0 <__aeabi_dadd+0x6d4>
100039e2:	464c      	mov	r4, r9
100039e4:	4314      	orrs	r4, r2
100039e6:	d01a      	beq.n	10003a1e <__aeabi_dadd+0x652>
100039e8:	08c7      	lsrs	r7, r0, #3
100039ea:	2580      	movs	r5, #128	; 0x80
100039ec:	4658      	mov	r0, fp
100039ee:	0743      	lsls	r3, r0, #29
100039f0:	032c      	lsls	r4, r5, #12
100039f2:	08c0      	lsrs	r0, r0, #3
100039f4:	431f      	orrs	r7, r3
100039f6:	4220      	tst	r0, r4
100039f8:	d008      	beq.n	10003a0c <__aeabi_dadd+0x640>
100039fa:	464e      	mov	r6, r9
100039fc:	08f3      	lsrs	r3, r6, #3
100039fe:	4223      	tst	r3, r4
10003a00:	d104      	bne.n	10003a0c <__aeabi_dadd+0x640>
10003a02:	4652      	mov	r2, sl
10003a04:	08d5      	lsrs	r5, r2, #3
10003a06:	0777      	lsls	r7, r6, #29
10003a08:	1c18      	adds	r0, r3, #0
10003a0a:	432f      	orrs	r7, r5
10003a0c:	00c3      	lsls	r3, r0, #3
10003a0e:	00fc      	lsls	r4, r7, #3
10003a10:	0f78      	lsrs	r0, r7, #29
10003a12:	1c0f      	adds	r7, r1, #0
10003a14:	2180      	movs	r1, #128	; 0x80
10003a16:	4303      	orrs	r3, r0
10003a18:	010a      	lsls	r2, r1, #4
10003a1a:	4e3d      	ldr	r6, [pc, #244]	; (10003b10 <__aeabi_dadd+0x744>)
10003a1c:	e563      	b.n	100034e6 <__aeabi_dadd+0x11a>
10003a1e:	2680      	movs	r6, #128	; 0x80
10003a20:	0132      	lsls	r2, r6, #4
10003a22:	465b      	mov	r3, fp
10003a24:	1c04      	adds	r4, r0, #0
10003a26:	4e3a      	ldr	r6, [pc, #232]	; (10003b10 <__aeabi_dadd+0x744>)
10003a28:	e55d      	b.n	100034e6 <__aeabi_dadd+0x11a>
10003a2a:	2200      	movs	r2, #0
10003a2c:	e729      	b.n	10003882 <__aeabi_dadd+0x4b6>
10003a2e:	1c39      	adds	r1, r7, #0
10003a30:	3920      	subs	r1, #32
10003a32:	465c      	mov	r4, fp
10003a34:	40cc      	lsrs	r4, r1
10003a36:	1c22      	adds	r2, r4, #0
10003a38:	2f20      	cmp	r7, #32
10003a3a:	d067      	beq.n	10003b0c <__aeabi_dadd+0x740>
10003a3c:	2340      	movs	r3, #64	; 0x40
10003a3e:	1bdf      	subs	r7, r3, r7
10003a40:	465d      	mov	r5, fp
10003a42:	40bd      	lsls	r5, r7
10003a44:	4328      	orrs	r0, r5
10003a46:	1e43      	subs	r3, r0, #1
10003a48:	4198      	sbcs	r0, r3
10003a4a:	4310      	orrs	r0, r2
10003a4c:	2300      	movs	r3, #0
10003a4e:	e682      	b.n	10003756 <__aeabi_dadd+0x38a>
10003a50:	3b01      	subs	r3, #1
10003a52:	2b00      	cmp	r3, #0
10003a54:	d12c      	bne.n	10003ab0 <__aeabi_dadd+0x6e4>
10003a56:	4450      	add	r0, sl
10003a58:	465c      	mov	r4, fp
10003a5a:	4290      	cmp	r0, r2
10003a5c:	41ad      	sbcs	r5, r5
10003a5e:	444c      	add	r4, r9
10003a60:	426a      	negs	r2, r5
10003a62:	18a3      	adds	r3, r4, r2
10003a64:	1c04      	adds	r4, r0, #0
10003a66:	e69c      	b.n	100037a2 <__aeabi_dadd+0x3d6>
10003a68:	465b      	mov	r3, fp
10003a6a:	1c04      	adds	r4, r0, #0
10003a6c:	2201      	movs	r2, #1
10003a6e:	2600      	movs	r6, #0
10003a70:	e539      	b.n	100034e6 <__aeabi_dadd+0x11a>
10003a72:	2480      	movs	r4, #128	; 0x80
10003a74:	2104      	movs	r1, #4
10003a76:	2700      	movs	r7, #0
10003a78:	0122      	lsls	r2, r4, #4
10003a7a:	4b27      	ldr	r3, [pc, #156]	; (10003b18 <__aeabi_dadd+0x74c>)
10003a7c:	4248      	negs	r0, r1
10003a7e:	4e24      	ldr	r6, [pc, #144]	; (10003b10 <__aeabi_dadd+0x744>)
10003a80:	e549      	b.n	10003516 <__aeabi_dadd+0x14a>
10003a82:	465d      	mov	r5, fp
10003a84:	4305      	orrs	r5, r0
10003a86:	2300      	movs	r3, #0
10003a88:	2200      	movs	r2, #0
10003a8a:	2d00      	cmp	r5, #0
10003a8c:	d100      	bne.n	10003a90 <__aeabi_dadd+0x6c4>
10003a8e:	e758      	b.n	10003942 <__aeabi_dadd+0x576>
10003a90:	2201      	movs	r2, #1
10003a92:	e756      	b.n	10003942 <__aeabi_dadd+0x576>
10003a94:	1c14      	adds	r4, r2, #0
10003a96:	464b      	mov	r3, r9
10003a98:	1c0f      	adds	r7, r1, #0
10003a9a:	2201      	movs	r2, #1
10003a9c:	2600      	movs	r6, #0
10003a9e:	e522      	b.n	100034e6 <__aeabi_dadd+0x11a>
10003aa0:	1c14      	adds	r4, r2, #0
10003aa2:	2280      	movs	r2, #128	; 0x80
10003aa4:	464b      	mov	r3, r9
10003aa6:	0112      	lsls	r2, r2, #4
10003aa8:	4e19      	ldr	r6, [pc, #100]	; (10003b10 <__aeabi_dadd+0x744>)
10003aaa:	e51c      	b.n	100034e6 <__aeabi_dadd+0x11a>
10003aac:	1c06      	adds	r6, r0, #0
10003aae:	e784      	b.n	100039ba <__aeabi_dadd+0x5ee>
10003ab0:	4a17      	ldr	r2, [pc, #92]	; (10003b10 <__aeabi_dadd+0x744>)
10003ab2:	4296      	cmp	r6, r2
10003ab4:	d000      	beq.n	10003ab8 <__aeabi_dadd+0x6ec>
10003ab6:	e730      	b.n	1000391a <__aeabi_dadd+0x54e>
10003ab8:	1c0f      	adds	r7, r1, #0
10003aba:	2180      	movs	r1, #128	; 0x80
10003abc:	464b      	mov	r3, r9
10003abe:	4654      	mov	r4, sl
10003ac0:	010a      	lsls	r2, r1, #4
10003ac2:	e510      	b.n	100034e6 <__aeabi_dadd+0x11a>
10003ac4:	0574      	lsls	r4, r6, #21
10003ac6:	0d66      	lsrs	r6, r4, #21
10003ac8:	2300      	movs	r3, #0
10003aca:	2400      	movs	r4, #0
10003acc:	e52f      	b.n	1000352e <__aeabi_dadd+0x162>
10003ace:	1c18      	adds	r0, r3, #0
10003ad0:	4328      	orrs	r0, r5
10003ad2:	d100      	bne.n	10003ad6 <__aeabi_dadd+0x70a>
10003ad4:	e64c      	b.n	10003770 <__aeabi_dadd+0x3a4>
10003ad6:	1c2c      	adds	r4, r5, #0
10003ad8:	2201      	movs	r2, #1
10003ada:	2600      	movs	r6, #0
10003adc:	e503      	b.n	100034e6 <__aeabi_dadd+0x11a>
10003ade:	1c1c      	adds	r4, r3, #0
10003ae0:	3c20      	subs	r4, #32
10003ae2:	465d      	mov	r5, fp
10003ae4:	40e5      	lsrs	r5, r4
10003ae6:	1c2c      	adds	r4, r5, #0
10003ae8:	2b20      	cmp	r3, #32
10003aea:	d01c      	beq.n	10003b26 <__aeabi_dadd+0x75a>
10003aec:	2240      	movs	r2, #64	; 0x40
10003aee:	1ad3      	subs	r3, r2, r3
10003af0:	465a      	mov	r2, fp
10003af2:	409a      	lsls	r2, r3
10003af4:	4302      	orrs	r2, r0
10003af6:	1e50      	subs	r0, r2, #1
10003af8:	4182      	sbcs	r2, r0
10003afa:	4322      	orrs	r2, r4
10003afc:	2300      	movs	r3, #0
10003afe:	e720      	b.n	10003942 <__aeabi_dadd+0x576>
10003b00:	465b      	mov	r3, fp
10003b02:	1c04      	adds	r4, r0, #0
10003b04:	1c0f      	adds	r7, r1, #0
10003b06:	2201      	movs	r2, #1
10003b08:	2600      	movs	r6, #0
10003b0a:	e4ec      	b.n	100034e6 <__aeabi_dadd+0x11a>
10003b0c:	2500      	movs	r5, #0
10003b0e:	e799      	b.n	10003a44 <__aeabi_dadd+0x678>
10003b10:	000007ff 	.word	0x000007ff
10003b14:	ff7fffff 	.word	0xff7fffff
10003b18:	007fffff 	.word	0x007fffff
10003b1c:	1c2c      	adds	r4, r5, #0
10003b1e:	1c0f      	adds	r7, r1, #0
10003b20:	2201      	movs	r2, #1
10003b22:	2600      	movs	r6, #0
10003b24:	e4df      	b.n	100034e6 <__aeabi_dadd+0x11a>
10003b26:	2200      	movs	r2, #0
10003b28:	e7e4      	b.n	10003af4 <__aeabi_dadd+0x728>
10003b2a:	46c0      	nop			; (mov r8, r8)

10003b2c <__aeabi_ddiv>:
10003b2c:	b5f0      	push	{r4, r5, r6, r7, lr}
10003b2e:	464d      	mov	r5, r9
10003b30:	4644      	mov	r4, r8
10003b32:	465f      	mov	r7, fp
10003b34:	4656      	mov	r6, sl
10003b36:	b4f0      	push	{r4, r5, r6, r7}
10003b38:	1c1d      	adds	r5, r3, #0
10003b3a:	004b      	lsls	r3, r1, #1
10003b3c:	1c14      	adds	r4, r2, #0
10003b3e:	030e      	lsls	r6, r1, #12
10003b40:	0d5b      	lsrs	r3, r3, #21
10003b42:	0fca      	lsrs	r2, r1, #31
10003b44:	b087      	sub	sp, #28
10003b46:	1c07      	adds	r7, r0, #0
10003b48:	0b36      	lsrs	r6, r6, #12
10003b4a:	4698      	mov	r8, r3
10003b4c:	4691      	mov	r9, r2
10003b4e:	2b00      	cmp	r3, #0
10003b50:	d11d      	bne.n	10003b8e <__aeabi_ddiv+0x62>
10003b52:	1c32      	adds	r2, r6, #0
10003b54:	4302      	orrs	r2, r0
10003b56:	d100      	bne.n	10003b5a <__aeabi_ddiv+0x2e>
10003b58:	e181      	b.n	10003e5e <__aeabi_ddiv+0x332>
10003b5a:	2e00      	cmp	r6, #0
10003b5c:	d100      	bne.n	10003b60 <__aeabi_ddiv+0x34>
10003b5e:	e204      	b.n	10003f6a <__aeabi_ddiv+0x43e>
10003b60:	1c30      	adds	r0, r6, #0
10003b62:	f001 fb35 	bl	100051d0 <__clzsi2>
10003b66:	2827      	cmp	r0, #39	; 0x27
10003b68:	dd00      	ble.n	10003b6c <__aeabi_ddiv+0x40>
10003b6a:	e1f8      	b.n	10003f5e <__aeabi_ddiv+0x432>
10003b6c:	2128      	movs	r1, #40	; 0x28
10003b6e:	1c03      	adds	r3, r0, #0
10003b70:	3b08      	subs	r3, #8
10003b72:	1a0a      	subs	r2, r1, r0
10003b74:	1c39      	adds	r1, r7, #0
10003b76:	409e      	lsls	r6, r3
10003b78:	40d1      	lsrs	r1, r2
10003b7a:	430e      	orrs	r6, r1
10003b7c:	409f      	lsls	r7, r3
10003b7e:	4bc1      	ldr	r3, [pc, #772]	; (10003e84 <__aeabi_ddiv+0x358>)
10003b80:	2100      	movs	r1, #0
10003b82:	1a18      	subs	r0, r3, r0
10003b84:	2200      	movs	r2, #0
10003b86:	4680      	mov	r8, r0
10003b88:	468a      	mov	sl, r1
10003b8a:	9200      	str	r2, [sp, #0]
10003b8c:	e00f      	b.n	10003bae <__aeabi_ddiv+0x82>
10003b8e:	48be      	ldr	r0, [pc, #760]	; (10003e88 <__aeabi_ddiv+0x35c>)
10003b90:	4283      	cmp	r3, r0
10003b92:	d031      	beq.n	10003bf8 <__aeabi_ddiv+0xcc>
10003b94:	2180      	movs	r1, #128	; 0x80
10003b96:	034b      	lsls	r3, r1, #13
10003b98:	431e      	orrs	r6, r3
10003b9a:	48bc      	ldr	r0, [pc, #752]	; (10003e8c <__aeabi_ddiv+0x360>)
10003b9c:	0f7a      	lsrs	r2, r7, #29
10003b9e:	00f6      	lsls	r6, r6, #3
10003ba0:	2100      	movs	r1, #0
10003ba2:	2300      	movs	r3, #0
10003ba4:	4316      	orrs	r6, r2
10003ba6:	00ff      	lsls	r7, r7, #3
10003ba8:	4480      	add	r8, r0
10003baa:	468a      	mov	sl, r1
10003bac:	9300      	str	r3, [sp, #0]
10003bae:	1c29      	adds	r1, r5, #0
10003bb0:	1c20      	adds	r0, r4, #0
10003bb2:	1c25      	adds	r5, r4, #0
10003bb4:	004a      	lsls	r2, r1, #1
10003bb6:	030c      	lsls	r4, r1, #12
10003bb8:	0fcb      	lsrs	r3, r1, #31
10003bba:	0b24      	lsrs	r4, r4, #12
10003bbc:	0d52      	lsrs	r2, r2, #21
10003bbe:	469b      	mov	fp, r3
10003bc0:	d125      	bne.n	10003c0e <__aeabi_ddiv+0xe2>
10003bc2:	1c21      	adds	r1, r4, #0
10003bc4:	4301      	orrs	r1, r0
10003bc6:	d100      	bne.n	10003bca <__aeabi_ddiv+0x9e>
10003bc8:	e150      	b.n	10003e6c <__aeabi_ddiv+0x340>
10003bca:	2c00      	cmp	r4, #0
10003bcc:	d100      	bne.n	10003bd0 <__aeabi_ddiv+0xa4>
10003bce:	e1c2      	b.n	10003f56 <__aeabi_ddiv+0x42a>
10003bd0:	1c20      	adds	r0, r4, #0
10003bd2:	f001 fafd 	bl	100051d0 <__clzsi2>
10003bd6:	2827      	cmp	r0, #39	; 0x27
10003bd8:	dd00      	ble.n	10003bdc <__aeabi_ddiv+0xb0>
10003bda:	e1b6      	b.n	10003f4a <__aeabi_ddiv+0x41e>
10003bdc:	1c03      	adds	r3, r0, #0
10003bde:	2228      	movs	r2, #40	; 0x28
10003be0:	3b08      	subs	r3, #8
10003be2:	1c29      	adds	r1, r5, #0
10003be4:	1a12      	subs	r2, r2, r0
10003be6:	409c      	lsls	r4, r3
10003be8:	40d1      	lsrs	r1, r2
10003bea:	430c      	orrs	r4, r1
10003bec:	409d      	lsls	r5, r3
10003bee:	4ba5      	ldr	r3, [pc, #660]	; (10003e84 <__aeabi_ddiv+0x358>)
10003bf0:	1a1a      	subs	r2, r3, r0
10003bf2:	2000      	movs	r0, #0
10003bf4:	9002      	str	r0, [sp, #8]
10003bf6:	e019      	b.n	10003c2c <__aeabi_ddiv+0x100>
10003bf8:	1c32      	adds	r2, r6, #0
10003bfa:	433a      	orrs	r2, r7
10003bfc:	d000      	beq.n	10003c00 <__aeabi_ddiv+0xd4>
10003bfe:	e129      	b.n	10003e54 <__aeabi_ddiv+0x328>
10003c00:	2708      	movs	r7, #8
10003c02:	2302      	movs	r3, #2
10003c04:	46ba      	mov	sl, r7
10003c06:	2600      	movs	r6, #0
10003c08:	2700      	movs	r7, #0
10003c0a:	9300      	str	r3, [sp, #0]
10003c0c:	e7cf      	b.n	10003bae <__aeabi_ddiv+0x82>
10003c0e:	489e      	ldr	r0, [pc, #632]	; (10003e88 <__aeabi_ddiv+0x35c>)
10003c10:	4282      	cmp	r2, r0
10003c12:	d100      	bne.n	10003c16 <__aeabi_ddiv+0xea>
10003c14:	e113      	b.n	10003e3e <__aeabi_ddiv+0x312>
10003c16:	2180      	movs	r1, #128	; 0x80
10003c18:	034b      	lsls	r3, r1, #13
10003c1a:	431c      	orrs	r4, r3
10003c1c:	499b      	ldr	r1, [pc, #620]	; (10003e8c <__aeabi_ddiv+0x360>)
10003c1e:	0f68      	lsrs	r0, r5, #29
10003c20:	00e4      	lsls	r4, r4, #3
10003c22:	2300      	movs	r3, #0
10003c24:	4304      	orrs	r4, r0
10003c26:	00ed      	lsls	r5, r5, #3
10003c28:	1852      	adds	r2, r2, r1
10003c2a:	9302      	str	r3, [sp, #8]
10003c2c:	4648      	mov	r0, r9
10003c2e:	465b      	mov	r3, fp
10003c30:	4043      	eors	r3, r0
10003c32:	9802      	ldr	r0, [sp, #8]
10003c34:	4651      	mov	r1, sl
10003c36:	9301      	str	r3, [sp, #4]
10003c38:	4301      	orrs	r1, r0
10003c3a:	290f      	cmp	r1, #15
10003c3c:	d800      	bhi.n	10003c40 <__aeabi_ddiv+0x114>
10003c3e:	e0df      	b.n	10003e00 <__aeabi_ddiv+0x2d4>
10003c40:	4643      	mov	r3, r8
10003c42:	1a9a      	subs	r2, r3, r2
10003c44:	9204      	str	r2, [sp, #16]
10003c46:	42a6      	cmp	r6, r4
10003c48:	d800      	bhi.n	10003c4c <__aeabi_ddiv+0x120>
10003c4a:	e16e      	b.n	10003f2a <__aeabi_ddiv+0x3fe>
10003c4c:	0871      	lsrs	r1, r6, #1
10003c4e:	087b      	lsrs	r3, r7, #1
10003c50:	07f6      	lsls	r6, r6, #31
10003c52:	4333      	orrs	r3, r6
10003c54:	07fa      	lsls	r2, r7, #31
10003c56:	4689      	mov	r9, r1
10003c58:	4698      	mov	r8, r3
10003c5a:	9202      	str	r2, [sp, #8]
10003c5c:	0e28      	lsrs	r0, r5, #24
10003c5e:	0224      	lsls	r4, r4, #8
10003c60:	4304      	orrs	r4, r0
10003c62:	022d      	lsls	r5, r5, #8
10003c64:	0427      	lsls	r7, r4, #16
10003c66:	0c39      	lsrs	r1, r7, #16
10003c68:	46ab      	mov	fp, r5
10003c6a:	0c25      	lsrs	r5, r4, #16
10003c6c:	9100      	str	r1, [sp, #0]
10003c6e:	4648      	mov	r0, r9
10003c70:	1c29      	adds	r1, r5, #0
10003c72:	f7fe fb9d 	bl	100023b0 <__aeabi_uidiv>
10003c76:	9f00      	ldr	r7, [sp, #0]
10003c78:	1c06      	adds	r6, r0, #0
10003c7a:	4347      	muls	r7, r0
10003c7c:	1c29      	adds	r1, r5, #0
10003c7e:	4648      	mov	r0, r9
10003c80:	f7fe fbda 	bl	10002438 <__aeabi_uidivmod>
10003c84:	4643      	mov	r3, r8
10003c86:	0408      	lsls	r0, r1, #16
10003c88:	0c1a      	lsrs	r2, r3, #16
10003c8a:	4310      	orrs	r0, r2
10003c8c:	4287      	cmp	r7, r0
10003c8e:	d907      	bls.n	10003ca0 <__aeabi_ddiv+0x174>
10003c90:	1900      	adds	r0, r0, r4
10003c92:	3e01      	subs	r6, #1
10003c94:	4284      	cmp	r4, r0
10003c96:	d803      	bhi.n	10003ca0 <__aeabi_ddiv+0x174>
10003c98:	4287      	cmp	r7, r0
10003c9a:	d901      	bls.n	10003ca0 <__aeabi_ddiv+0x174>
10003c9c:	3e01      	subs	r6, #1
10003c9e:	1900      	adds	r0, r0, r4
10003ca0:	1bc1      	subs	r1, r0, r7
10003ca2:	468a      	mov	sl, r1
10003ca4:	1c08      	adds	r0, r1, #0
10003ca6:	1c29      	adds	r1, r5, #0
10003ca8:	f7fe fb82 	bl	100023b0 <__aeabi_uidiv>
10003cac:	9b00      	ldr	r3, [sp, #0]
10003cae:	1c07      	adds	r7, r0, #0
10003cb0:	4343      	muls	r3, r0
10003cb2:	1c29      	adds	r1, r5, #0
10003cb4:	4650      	mov	r0, sl
10003cb6:	4699      	mov	r9, r3
10003cb8:	f7fe fbbe 	bl	10002438 <__aeabi_uidivmod>
10003cbc:	4642      	mov	r2, r8
10003cbe:	0410      	lsls	r0, r2, #16
10003cc0:	040b      	lsls	r3, r1, #16
10003cc2:	0c01      	lsrs	r1, r0, #16
10003cc4:	430b      	orrs	r3, r1
10003cc6:	4599      	cmp	r9, r3
10003cc8:	d904      	bls.n	10003cd4 <__aeabi_ddiv+0x1a8>
10003cca:	191b      	adds	r3, r3, r4
10003ccc:	3f01      	subs	r7, #1
10003cce:	429c      	cmp	r4, r3
10003cd0:	d800      	bhi.n	10003cd4 <__aeabi_ddiv+0x1a8>
10003cd2:	e164      	b.n	10003f9e <__aeabi_ddiv+0x472>
10003cd4:	0436      	lsls	r6, r6, #16
10003cd6:	433e      	orrs	r6, r7
10003cd8:	465f      	mov	r7, fp
10003cda:	464a      	mov	r2, r9
10003cdc:	0c39      	lsrs	r1, r7, #16
10003cde:	4689      	mov	r9, r1
10003ce0:	1a9b      	subs	r3, r3, r2
10003ce2:	4659      	mov	r1, fp
10003ce4:	0432      	lsls	r2, r6, #16
10003ce6:	0c17      	lsrs	r7, r2, #16
10003ce8:	040a      	lsls	r2, r1, #16
10003cea:	4649      	mov	r1, r9
10003cec:	4379      	muls	r1, r7
10003cee:	0c12      	lsrs	r2, r2, #16
10003cf0:	9203      	str	r2, [sp, #12]
10003cf2:	468c      	mov	ip, r1
10003cf4:	9903      	ldr	r1, [sp, #12]
10003cf6:	0c30      	lsrs	r0, r6, #16
10003cf8:	437a      	muls	r2, r7
10003cfa:	4341      	muls	r1, r0
10003cfc:	464f      	mov	r7, r9
10003cfe:	4378      	muls	r0, r7
10003d00:	448c      	add	ip, r1
10003d02:	0c17      	lsrs	r7, r2, #16
10003d04:	4467      	add	r7, ip
10003d06:	42b9      	cmp	r1, r7
10003d08:	d902      	bls.n	10003d10 <__aeabi_ddiv+0x1e4>
10003d0a:	2180      	movs	r1, #128	; 0x80
10003d0c:	0249      	lsls	r1, r1, #9
10003d0e:	1840      	adds	r0, r0, r1
10003d10:	0c39      	lsrs	r1, r7, #16
10003d12:	0412      	lsls	r2, r2, #16
10003d14:	1840      	adds	r0, r0, r1
10003d16:	043f      	lsls	r7, r7, #16
10003d18:	0c11      	lsrs	r1, r2, #16
10003d1a:	187f      	adds	r7, r7, r1
10003d1c:	4283      	cmp	r3, r0
10003d1e:	d200      	bcs.n	10003d22 <__aeabi_ddiv+0x1f6>
10003d20:	e127      	b.n	10003f72 <__aeabi_ddiv+0x446>
10003d22:	d100      	bne.n	10003d26 <__aeabi_ddiv+0x1fa>
10003d24:	e141      	b.n	10003faa <__aeabi_ddiv+0x47e>
10003d26:	9902      	ldr	r1, [sp, #8]
10003d28:	1a1b      	subs	r3, r3, r0
10003d2a:	1bcf      	subs	r7, r1, r7
10003d2c:	42b9      	cmp	r1, r7
10003d2e:	4180      	sbcs	r0, r0
10003d30:	4241      	negs	r1, r0
10003d32:	1a5a      	subs	r2, r3, r1
10003d34:	4690      	mov	r8, r2
10003d36:	42a2      	cmp	r2, r4
10003d38:	d100      	bne.n	10003d3c <__aeabi_ddiv+0x210>
10003d3a:	e15f      	b.n	10003ffc <__aeabi_ddiv+0x4d0>
10003d3c:	1c10      	adds	r0, r2, #0
10003d3e:	1c29      	adds	r1, r5, #0
10003d40:	f7fe fb36 	bl	100023b0 <__aeabi_uidiv>
10003d44:	9b00      	ldr	r3, [sp, #0]
10003d46:	9002      	str	r0, [sp, #8]
10003d48:	4343      	muls	r3, r0
10003d4a:	1c29      	adds	r1, r5, #0
10003d4c:	4640      	mov	r0, r8
10003d4e:	469a      	mov	sl, r3
10003d50:	f7fe fb72 	bl	10002438 <__aeabi_uidivmod>
10003d54:	0c38      	lsrs	r0, r7, #16
10003d56:	0409      	lsls	r1, r1, #16
10003d58:	4301      	orrs	r1, r0
10003d5a:	458a      	cmp	sl, r1
10003d5c:	d90a      	bls.n	10003d74 <__aeabi_ddiv+0x248>
10003d5e:	9a02      	ldr	r2, [sp, #8]
10003d60:	1909      	adds	r1, r1, r4
10003d62:	3a01      	subs	r2, #1
10003d64:	9202      	str	r2, [sp, #8]
10003d66:	428c      	cmp	r4, r1
10003d68:	d804      	bhi.n	10003d74 <__aeabi_ddiv+0x248>
10003d6a:	458a      	cmp	sl, r1
10003d6c:	d902      	bls.n	10003d74 <__aeabi_ddiv+0x248>
10003d6e:	3a01      	subs	r2, #1
10003d70:	9202      	str	r2, [sp, #8]
10003d72:	1909      	adds	r1, r1, r4
10003d74:	4653      	mov	r3, sl
10003d76:	1ac8      	subs	r0, r1, r3
10003d78:	1c29      	adds	r1, r5, #0
10003d7a:	9005      	str	r0, [sp, #20]
10003d7c:	f7fe fb18 	bl	100023b0 <__aeabi_uidiv>
10003d80:	9a00      	ldr	r2, [sp, #0]
10003d82:	1c29      	adds	r1, r5, #0
10003d84:	4342      	muls	r2, r0
10003d86:	4680      	mov	r8, r0
10003d88:	9805      	ldr	r0, [sp, #20]
10003d8a:	4692      	mov	sl, r2
10003d8c:	f7fe fb54 	bl	10002438 <__aeabi_uidivmod>
10003d90:	043f      	lsls	r7, r7, #16
10003d92:	040d      	lsls	r5, r1, #16
10003d94:	0c3a      	lsrs	r2, r7, #16
10003d96:	432a      	orrs	r2, r5
10003d98:	4592      	cmp	sl, r2
10003d9a:	d909      	bls.n	10003db0 <__aeabi_ddiv+0x284>
10003d9c:	2101      	movs	r1, #1
10003d9e:	424b      	negs	r3, r1
10003da0:	1912      	adds	r2, r2, r4
10003da2:	4498      	add	r8, r3
10003da4:	4294      	cmp	r4, r2
10003da6:	d803      	bhi.n	10003db0 <__aeabi_ddiv+0x284>
10003da8:	4592      	cmp	sl, r2
10003daa:	d901      	bls.n	10003db0 <__aeabi_ddiv+0x284>
10003dac:	4498      	add	r8, r3
10003dae:	1912      	adds	r2, r2, r4
10003db0:	9d02      	ldr	r5, [sp, #8]
10003db2:	4643      	mov	r3, r8
10003db4:	042f      	lsls	r7, r5, #16
10003db6:	431f      	orrs	r7, r3
10003db8:	4650      	mov	r0, sl
10003dba:	1a11      	subs	r1, r2, r0
10003dbc:	0438      	lsls	r0, r7, #16
10003dbe:	0c03      	lsrs	r3, r0, #16
10003dc0:	464d      	mov	r5, r9
10003dc2:	435d      	muls	r5, r3
10003dc4:	9803      	ldr	r0, [sp, #12]
10003dc6:	46ac      	mov	ip, r5
10003dc8:	9d03      	ldr	r5, [sp, #12]
10003dca:	0c3a      	lsrs	r2, r7, #16
10003dcc:	4358      	muls	r0, r3
10003dce:	4355      	muls	r5, r2
10003dd0:	464b      	mov	r3, r9
10003dd2:	435a      	muls	r2, r3
10003dd4:	44ac      	add	ip, r5
10003dd6:	0c03      	lsrs	r3, r0, #16
10003dd8:	4463      	add	r3, ip
10003dda:	429d      	cmp	r5, r3
10003ddc:	d902      	bls.n	10003de4 <__aeabi_ddiv+0x2b8>
10003dde:	2580      	movs	r5, #128	; 0x80
10003de0:	026d      	lsls	r5, r5, #9
10003de2:	1952      	adds	r2, r2, r5
10003de4:	0c1d      	lsrs	r5, r3, #16
10003de6:	0400      	lsls	r0, r0, #16
10003de8:	1952      	adds	r2, r2, r5
10003dea:	041b      	lsls	r3, r3, #16
10003dec:	0c05      	lsrs	r5, r0, #16
10003dee:	195b      	adds	r3, r3, r5
10003df0:	4291      	cmp	r1, r2
10003df2:	d200      	bcs.n	10003df6 <__aeabi_ddiv+0x2ca>
10003df4:	e0e6      	b.n	10003fc4 <__aeabi_ddiv+0x498>
10003df6:	d100      	bne.n	10003dfa <__aeabi_ddiv+0x2ce>
10003df8:	e13d      	b.n	10004076 <__aeabi_ddiv+0x54a>
10003dfa:	2201      	movs	r2, #1
10003dfc:	4317      	orrs	r7, r2
10003dfe:	e05a      	b.n	10003eb6 <__aeabi_ddiv+0x38a>
10003e00:	0089      	lsls	r1, r1, #2
10003e02:	4823      	ldr	r0, [pc, #140]	; (10003e90 <__aeabi_ddiv+0x364>)
10003e04:	468c      	mov	ip, r1
10003e06:	4460      	add	r0, ip
10003e08:	6801      	ldr	r1, [r0, #0]
10003e0a:	468f      	mov	pc, r1
10003e0c:	9b01      	ldr	r3, [sp, #4]
10003e0e:	4a1e      	ldr	r2, [pc, #120]	; (10003e88 <__aeabi_ddiv+0x35c>)
10003e10:	2600      	movs	r6, #0
10003e12:	2700      	movs	r7, #0
10003e14:	2000      	movs	r0, #0
10003e16:	2100      	movs	r1, #0
10003e18:	1c38      	adds	r0, r7, #0
10003e1a:	0d0f      	lsrs	r7, r1, #20
10003e1c:	053c      	lsls	r4, r7, #20
10003e1e:	4d1d      	ldr	r5, [pc, #116]	; (10003e94 <__aeabi_ddiv+0x368>)
10003e20:	4334      	orrs	r4, r6
10003e22:	0512      	lsls	r2, r2, #20
10003e24:	4025      	ands	r5, r4
10003e26:	4315      	orrs	r5, r2
10003e28:	006e      	lsls	r6, r5, #1
10003e2a:	07db      	lsls	r3, r3, #31
10003e2c:	0871      	lsrs	r1, r6, #1
10003e2e:	4319      	orrs	r1, r3
10003e30:	b007      	add	sp, #28
10003e32:	bc3c      	pop	{r2, r3, r4, r5}
10003e34:	4690      	mov	r8, r2
10003e36:	4699      	mov	r9, r3
10003e38:	46a2      	mov	sl, r4
10003e3a:	46ab      	mov	fp, r5
10003e3c:	bdf0      	pop	{r4, r5, r6, r7, pc}
10003e3e:	1c21      	adds	r1, r4, #0
10003e40:	2003      	movs	r0, #3
10003e42:	4329      	orrs	r1, r5
10003e44:	9002      	str	r0, [sp, #8]
10003e46:	d000      	beq.n	10003e4a <__aeabi_ddiv+0x31e>
10003e48:	e6f0      	b.n	10003c2c <__aeabi_ddiv+0x100>
10003e4a:	2302      	movs	r3, #2
10003e4c:	2400      	movs	r4, #0
10003e4e:	2500      	movs	r5, #0
10003e50:	9302      	str	r3, [sp, #8]
10003e52:	e6eb      	b.n	10003c2c <__aeabi_ddiv+0x100>
10003e54:	200c      	movs	r0, #12
10003e56:	2103      	movs	r1, #3
10003e58:	4682      	mov	sl, r0
10003e5a:	9100      	str	r1, [sp, #0]
10003e5c:	e6a7      	b.n	10003bae <__aeabi_ddiv+0x82>
10003e5e:	2704      	movs	r7, #4
10003e60:	2301      	movs	r3, #1
10003e62:	46ba      	mov	sl, r7
10003e64:	2600      	movs	r6, #0
10003e66:	2700      	movs	r7, #0
10003e68:	9300      	str	r3, [sp, #0]
10003e6a:	e6a0      	b.n	10003bae <__aeabi_ddiv+0x82>
10003e6c:	2101      	movs	r1, #1
10003e6e:	2400      	movs	r4, #0
10003e70:	2500      	movs	r5, #0
10003e72:	9102      	str	r1, [sp, #8]
10003e74:	e6da      	b.n	10003c2c <__aeabi_ddiv+0x100>
10003e76:	2701      	movs	r7, #1
10003e78:	2300      	movs	r3, #0
10003e7a:	4e07      	ldr	r6, [pc, #28]	; (10003e98 <__aeabi_ddiv+0x36c>)
10003e7c:	427f      	negs	r7, r7
10003e7e:	4a02      	ldr	r2, [pc, #8]	; (10003e88 <__aeabi_ddiv+0x35c>)
10003e80:	e7c8      	b.n	10003e14 <__aeabi_ddiv+0x2e8>
10003e82:	46c0      	nop			; (mov r8, r8)
10003e84:	fffffc0d 	.word	0xfffffc0d
10003e88:	000007ff 	.word	0x000007ff
10003e8c:	fffffc01 	.word	0xfffffc01
10003e90:	10005440 	.word	0x10005440
10003e94:	800fffff 	.word	0x800fffff
10003e98:	000fffff 	.word	0x000fffff
10003e9c:	1c2f      	adds	r7, r5, #0
10003e9e:	465a      	mov	r2, fp
10003ea0:	9d02      	ldr	r5, [sp, #8]
10003ea2:	1c26      	adds	r6, r4, #0
10003ea4:	9201      	str	r2, [sp, #4]
10003ea6:	2d02      	cmp	r5, #2
10003ea8:	d0b0      	beq.n	10003e0c <__aeabi_ddiv+0x2e0>
10003eaa:	2d03      	cmp	r5, #3
10003eac:	d100      	bne.n	10003eb0 <__aeabi_ddiv+0x384>
10003eae:	e101      	b.n	100040b4 <__aeabi_ddiv+0x588>
10003eb0:	2d01      	cmp	r5, #1
10003eb2:	d100      	bne.n	10003eb6 <__aeabi_ddiv+0x38a>
10003eb4:	e09c      	b.n	10003ff0 <__aeabi_ddiv+0x4c4>
10003eb6:	9b04      	ldr	r3, [sp, #16]
10003eb8:	4882      	ldr	r0, [pc, #520]	; (100040c4 <__aeabi_ddiv+0x598>)
10003eba:	181a      	adds	r2, r3, r0
10003ebc:	2a00      	cmp	r2, #0
10003ebe:	dc00      	bgt.n	10003ec2 <__aeabi_ddiv+0x396>
10003ec0:	e08c      	b.n	10003fdc <__aeabi_ddiv+0x4b0>
10003ec2:	240f      	movs	r4, #15
10003ec4:	403c      	ands	r4, r7
10003ec6:	2c04      	cmp	r4, #4
10003ec8:	d005      	beq.n	10003ed6 <__aeabi_ddiv+0x3aa>
10003eca:	1d3b      	adds	r3, r7, #4
10003ecc:	42bb      	cmp	r3, r7
10003ece:	41bf      	sbcs	r7, r7
10003ed0:	427d      	negs	r5, r7
10003ed2:	1976      	adds	r6, r6, r5
10003ed4:	1c1f      	adds	r7, r3, #0
10003ed6:	01f1      	lsls	r1, r6, #7
10003ed8:	d505      	bpl.n	10003ee6 <__aeabi_ddiv+0x3ba>
10003eda:	4a7b      	ldr	r2, [pc, #492]	; (100040c8 <__aeabi_ddiv+0x59c>)
10003edc:	9904      	ldr	r1, [sp, #16]
10003ede:	2080      	movs	r0, #128	; 0x80
10003ee0:	00c4      	lsls	r4, r0, #3
10003ee2:	4016      	ands	r6, r2
10003ee4:	190a      	adds	r2, r1, r4
10003ee6:	4b79      	ldr	r3, [pc, #484]	; (100040cc <__aeabi_ddiv+0x5a0>)
10003ee8:	429a      	cmp	r2, r3
10003eea:	dd00      	ble.n	10003eee <__aeabi_ddiv+0x3c2>
10003eec:	e78e      	b.n	10003e0c <__aeabi_ddiv+0x2e0>
10003eee:	0775      	lsls	r5, r6, #29
10003ef0:	08ff      	lsrs	r7, r7, #3
10003ef2:	0276      	lsls	r6, r6, #9
10003ef4:	0551      	lsls	r1, r2, #21
10003ef6:	432f      	orrs	r7, r5
10003ef8:	0b36      	lsrs	r6, r6, #12
10003efa:	0d4a      	lsrs	r2, r1, #21
10003efc:	9b01      	ldr	r3, [sp, #4]
10003efe:	e789      	b.n	10003e14 <__aeabi_ddiv+0x2e8>
10003f00:	2200      	movs	r2, #0
10003f02:	2600      	movs	r6, #0
10003f04:	2700      	movs	r7, #0
10003f06:	e785      	b.n	10003e14 <__aeabi_ddiv+0x2e8>
10003f08:	2080      	movs	r0, #128	; 0x80
10003f0a:	0301      	lsls	r1, r0, #12
10003f0c:	420e      	tst	r6, r1
10003f0e:	d016      	beq.n	10003f3e <__aeabi_ddiv+0x412>
10003f10:	420c      	tst	r4, r1
10003f12:	d114      	bne.n	10003f3e <__aeabi_ddiv+0x412>
10003f14:	430c      	orrs	r4, r1
10003f16:	0326      	lsls	r6, r4, #12
10003f18:	0b36      	lsrs	r6, r6, #12
10003f1a:	465b      	mov	r3, fp
10003f1c:	1c2f      	adds	r7, r5, #0
10003f1e:	4a6c      	ldr	r2, [pc, #432]	; (100040d0 <__aeabi_ddiv+0x5a4>)
10003f20:	e778      	b.n	10003e14 <__aeabi_ddiv+0x2e8>
10003f22:	464c      	mov	r4, r9
10003f24:	9401      	str	r4, [sp, #4]
10003f26:	9d00      	ldr	r5, [sp, #0]
10003f28:	e7bd      	b.n	10003ea6 <__aeabi_ddiv+0x37a>
10003f2a:	42a6      	cmp	r6, r4
10003f2c:	d043      	beq.n	10003fb6 <__aeabi_ddiv+0x48a>
10003f2e:	9804      	ldr	r0, [sp, #16]
10003f30:	46b8      	mov	r8, r7
10003f32:	3801      	subs	r0, #1
10003f34:	2700      	movs	r7, #0
10003f36:	9004      	str	r0, [sp, #16]
10003f38:	46b1      	mov	r9, r6
10003f3a:	9702      	str	r7, [sp, #8]
10003f3c:	e68e      	b.n	10003c5c <__aeabi_ddiv+0x130>
10003f3e:	430e      	orrs	r6, r1
10003f40:	0333      	lsls	r3, r6, #12
10003f42:	0b1e      	lsrs	r6, r3, #12
10003f44:	4a62      	ldr	r2, [pc, #392]	; (100040d0 <__aeabi_ddiv+0x5a4>)
10003f46:	464b      	mov	r3, r9
10003f48:	e764      	b.n	10003e14 <__aeabi_ddiv+0x2e8>
10003f4a:	1c04      	adds	r4, r0, #0
10003f4c:	3c28      	subs	r4, #40	; 0x28
10003f4e:	40a5      	lsls	r5, r4
10003f50:	1c2c      	adds	r4, r5, #0
10003f52:	2500      	movs	r5, #0
10003f54:	e64b      	b.n	10003bee <__aeabi_ddiv+0xc2>
10003f56:	f001 f93b 	bl	100051d0 <__clzsi2>
10003f5a:	3020      	adds	r0, #32
10003f5c:	e63b      	b.n	10003bd6 <__aeabi_ddiv+0xaa>
10003f5e:	1c06      	adds	r6, r0, #0
10003f60:	3e28      	subs	r6, #40	; 0x28
10003f62:	40b7      	lsls	r7, r6
10003f64:	1c3e      	adds	r6, r7, #0
10003f66:	2700      	movs	r7, #0
10003f68:	e609      	b.n	10003b7e <__aeabi_ddiv+0x52>
10003f6a:	f001 f931 	bl	100051d0 <__clzsi2>
10003f6e:	3020      	adds	r0, #32
10003f70:	e5f9      	b.n	10003b66 <__aeabi_ddiv+0x3a>
10003f72:	9a02      	ldr	r2, [sp, #8]
10003f74:	3e01      	subs	r6, #1
10003f76:	1c11      	adds	r1, r2, #0
10003f78:	4459      	add	r1, fp
10003f7a:	4559      	cmp	r1, fp
10003f7c:	4192      	sbcs	r2, r2
10003f7e:	4252      	negs	r2, r2
10003f80:	1912      	adds	r2, r2, r4
10003f82:	18d3      	adds	r3, r2, r3
10003f84:	429c      	cmp	r4, r3
10003f86:	d204      	bcs.n	10003f92 <__aeabi_ddiv+0x466>
10003f88:	4298      	cmp	r0, r3
10003f8a:	d86b      	bhi.n	10004064 <__aeabi_ddiv+0x538>
10003f8c:	d016      	beq.n	10003fbc <__aeabi_ddiv+0x490>
10003f8e:	1a1b      	subs	r3, r3, r0
10003f90:	e6cb      	b.n	10003d2a <__aeabi_ddiv+0x1fe>
10003f92:	42a3      	cmp	r3, r4
10003f94:	d1fb      	bne.n	10003f8e <__aeabi_ddiv+0x462>
10003f96:	458b      	cmp	fp, r1
10003f98:	d9f6      	bls.n	10003f88 <__aeabi_ddiv+0x45c>
10003f9a:	1a23      	subs	r3, r4, r0
10003f9c:	e6c5      	b.n	10003d2a <__aeabi_ddiv+0x1fe>
10003f9e:	4599      	cmp	r9, r3
10003fa0:	d800      	bhi.n	10003fa4 <__aeabi_ddiv+0x478>
10003fa2:	e697      	b.n	10003cd4 <__aeabi_ddiv+0x1a8>
10003fa4:	3f01      	subs	r7, #1
10003fa6:	191b      	adds	r3, r3, r4
10003fa8:	e694      	b.n	10003cd4 <__aeabi_ddiv+0x1a8>
10003faa:	9a02      	ldr	r2, [sp, #8]
10003fac:	42ba      	cmp	r2, r7
10003fae:	d3e0      	bcc.n	10003f72 <__aeabi_ddiv+0x446>
10003fb0:	9902      	ldr	r1, [sp, #8]
10003fb2:	2300      	movs	r3, #0
10003fb4:	e6b9      	b.n	10003d2a <__aeabi_ddiv+0x1fe>
10003fb6:	42af      	cmp	r7, r5
10003fb8:	d9b9      	bls.n	10003f2e <__aeabi_ddiv+0x402>
10003fba:	e647      	b.n	10003c4c <__aeabi_ddiv+0x120>
10003fbc:	428f      	cmp	r7, r1
10003fbe:	d851      	bhi.n	10004064 <__aeabi_ddiv+0x538>
10003fc0:	2300      	movs	r3, #0
10003fc2:	e6b2      	b.n	10003d2a <__aeabi_ddiv+0x1fe>
10003fc4:	1909      	adds	r1, r1, r4
10003fc6:	3f01      	subs	r7, #1
10003fc8:	4658      	mov	r0, fp
10003fca:	428c      	cmp	r4, r1
10003fcc:	d919      	bls.n	10004002 <__aeabi_ddiv+0x4d6>
10003fce:	4291      	cmp	r1, r2
10003fd0:	d000      	beq.n	10003fd4 <__aeabi_ddiv+0x4a8>
10003fd2:	e712      	b.n	10003dfa <__aeabi_ddiv+0x2ce>
10003fd4:	4298      	cmp	r0, r3
10003fd6:	d000      	beq.n	10003fda <__aeabi_ddiv+0x4ae>
10003fd8:	e70f      	b.n	10003dfa <__aeabi_ddiv+0x2ce>
10003fda:	e76c      	b.n	10003eb6 <__aeabi_ddiv+0x38a>
10003fdc:	4c3d      	ldr	r4, [pc, #244]	; (100040d4 <__aeabi_ddiv+0x5a8>)
10003fde:	9d04      	ldr	r5, [sp, #16]
10003fe0:	1b63      	subs	r3, r4, r5
10003fe2:	2b38      	cmp	r3, #56	; 0x38
10003fe4:	dd1c      	ble.n	10004020 <__aeabi_ddiv+0x4f4>
10003fe6:	9b01      	ldr	r3, [sp, #4]
10003fe8:	2200      	movs	r2, #0
10003fea:	2600      	movs	r6, #0
10003fec:	2700      	movs	r7, #0
10003fee:	e711      	b.n	10003e14 <__aeabi_ddiv+0x2e8>
10003ff0:	9b01      	ldr	r3, [sp, #4]
10003ff2:	2200      	movs	r2, #0
10003ff4:	402b      	ands	r3, r5
10003ff6:	2600      	movs	r6, #0
10003ff8:	2700      	movs	r7, #0
10003ffa:	e70b      	b.n	10003e14 <__aeabi_ddiv+0x2e8>
10003ffc:	2701      	movs	r7, #1
10003ffe:	427f      	negs	r7, r7
10004000:	e759      	b.n	10003eb6 <__aeabi_ddiv+0x38a>
10004002:	428a      	cmp	r2, r1
10004004:	d803      	bhi.n	1000400e <__aeabi_ddiv+0x4e2>
10004006:	d000      	beq.n	1000400a <__aeabi_ddiv+0x4de>
10004008:	e6f7      	b.n	10003dfa <__aeabi_ddiv+0x2ce>
1000400a:	4298      	cmp	r0, r3
1000400c:	d2e2      	bcs.n	10003fd4 <__aeabi_ddiv+0x4a8>
1000400e:	465d      	mov	r5, fp
10004010:	0068      	lsls	r0, r5, #1
10004012:	4558      	cmp	r0, fp
10004014:	41ad      	sbcs	r5, r5
10004016:	426d      	negs	r5, r5
10004018:	192c      	adds	r4, r5, r4
1000401a:	3f01      	subs	r7, #1
1000401c:	1909      	adds	r1, r1, r4
1000401e:	e7d6      	b.n	10003fce <__aeabi_ddiv+0x4a2>
10004020:	2b1f      	cmp	r3, #31
10004022:	dc34      	bgt.n	1000408e <__aeabi_ddiv+0x562>
10004024:	9c04      	ldr	r4, [sp, #16]
10004026:	4a2c      	ldr	r2, [pc, #176]	; (100040d8 <__aeabi_ddiv+0x5ac>)
10004028:	1c38      	adds	r0, r7, #0
1000402a:	18a5      	adds	r5, r4, r2
1000402c:	1c31      	adds	r1, r6, #0
1000402e:	40af      	lsls	r7, r5
10004030:	40d8      	lsrs	r0, r3
10004032:	40a9      	lsls	r1, r5
10004034:	1c3c      	adds	r4, r7, #0
10004036:	4301      	orrs	r1, r0
10004038:	1e67      	subs	r7, r4, #1
1000403a:	41bc      	sbcs	r4, r7
1000403c:	1c0f      	adds	r7, r1, #0
1000403e:	4327      	orrs	r7, r4
10004040:	40de      	lsrs	r6, r3
10004042:	230f      	movs	r3, #15
10004044:	403b      	ands	r3, r7
10004046:	2b04      	cmp	r3, #4
10004048:	d005      	beq.n	10004056 <__aeabi_ddiv+0x52a>
1000404a:	1d3a      	adds	r2, r7, #4
1000404c:	42ba      	cmp	r2, r7
1000404e:	41bf      	sbcs	r7, r7
10004050:	427d      	negs	r5, r7
10004052:	1976      	adds	r6, r6, r5
10004054:	1c17      	adds	r7, r2, #0
10004056:	0232      	lsls	r2, r6, #8
10004058:	d511      	bpl.n	1000407e <__aeabi_ddiv+0x552>
1000405a:	9b01      	ldr	r3, [sp, #4]
1000405c:	2201      	movs	r2, #1
1000405e:	2600      	movs	r6, #0
10004060:	2700      	movs	r7, #0
10004062:	e6d7      	b.n	10003e14 <__aeabi_ddiv+0x2e8>
10004064:	4459      	add	r1, fp
10004066:	4559      	cmp	r1, fp
10004068:	4192      	sbcs	r2, r2
1000406a:	4252      	negs	r2, r2
1000406c:	1912      	adds	r2, r2, r4
1000406e:	18d3      	adds	r3, r2, r3
10004070:	3e01      	subs	r6, #1
10004072:	1a1b      	subs	r3, r3, r0
10004074:	e659      	b.n	10003d2a <__aeabi_ddiv+0x1fe>
10004076:	2b00      	cmp	r3, #0
10004078:	d1a4      	bne.n	10003fc4 <__aeabi_ddiv+0x498>
1000407a:	2000      	movs	r0, #0
1000407c:	e7aa      	b.n	10003fd4 <__aeabi_ddiv+0x4a8>
1000407e:	0770      	lsls	r0, r6, #29
10004080:	08ff      	lsrs	r7, r7, #3
10004082:	0271      	lsls	r1, r6, #9
10004084:	4307      	orrs	r7, r0
10004086:	0b0e      	lsrs	r6, r1, #12
10004088:	9b01      	ldr	r3, [sp, #4]
1000408a:	2200      	movs	r2, #0
1000408c:	e6c2      	b.n	10003e14 <__aeabi_ddiv+0x2e8>
1000408e:	4913      	ldr	r1, [pc, #76]	; (100040dc <__aeabi_ddiv+0x5b0>)
10004090:	9c04      	ldr	r4, [sp, #16]
10004092:	1c30      	adds	r0, r6, #0
10004094:	1b0a      	subs	r2, r1, r4
10004096:	40d0      	lsrs	r0, r2
10004098:	1c05      	adds	r5, r0, #0
1000409a:	2b20      	cmp	r3, #32
1000409c:	d008      	beq.n	100040b0 <__aeabi_ddiv+0x584>
1000409e:	4b10      	ldr	r3, [pc, #64]	; (100040e0 <__aeabi_ddiv+0x5b4>)
100040a0:	18e1      	adds	r1, r4, r3
100040a2:	408e      	lsls	r6, r1
100040a4:	4337      	orrs	r7, r6
100040a6:	1e7b      	subs	r3, r7, #1
100040a8:	419f      	sbcs	r7, r3
100040aa:	432f      	orrs	r7, r5
100040ac:	2600      	movs	r6, #0
100040ae:	e7c8      	b.n	10004042 <__aeabi_ddiv+0x516>
100040b0:	2600      	movs	r6, #0
100040b2:	e7f7      	b.n	100040a4 <__aeabi_ddiv+0x578>
100040b4:	2280      	movs	r2, #128	; 0x80
100040b6:	0310      	lsls	r0, r2, #12
100040b8:	4306      	orrs	r6, r0
100040ba:	0331      	lsls	r1, r6, #12
100040bc:	0b0e      	lsrs	r6, r1, #12
100040be:	9b01      	ldr	r3, [sp, #4]
100040c0:	4a03      	ldr	r2, [pc, #12]	; (100040d0 <__aeabi_ddiv+0x5a4>)
100040c2:	e6a7      	b.n	10003e14 <__aeabi_ddiv+0x2e8>
100040c4:	000003ff 	.word	0x000003ff
100040c8:	feffffff 	.word	0xfeffffff
100040cc:	000007fe 	.word	0x000007fe
100040d0:	000007ff 	.word	0x000007ff
100040d4:	fffffc02 	.word	0xfffffc02
100040d8:	0000041e 	.word	0x0000041e
100040dc:	fffffbe2 	.word	0xfffffbe2
100040e0:	0000043e 	.word	0x0000043e

100040e4 <__eqdf2>:
100040e4:	b5f0      	push	{r4, r5, r6, r7, lr}
100040e6:	4694      	mov	ip, r2
100040e8:	4647      	mov	r7, r8
100040ea:	031a      	lsls	r2, r3, #12
100040ec:	1c06      	adds	r6, r0, #0
100040ee:	0058      	lsls	r0, r3, #1
100040f0:	b480      	push	{r7}
100040f2:	0b17      	lsrs	r7, r2, #12
100040f4:	0d42      	lsrs	r2, r0, #21
100040f6:	4819      	ldr	r0, [pc, #100]	; (1000415c <__eqdf2+0x78>)
100040f8:	030d      	lsls	r5, r1, #12
100040fa:	004c      	lsls	r4, r1, #1
100040fc:	0fdb      	lsrs	r3, r3, #31
100040fe:	0b2d      	lsrs	r5, r5, #12
10004100:	0d64      	lsrs	r4, r4, #21
10004102:	0fc9      	lsrs	r1, r1, #31
10004104:	4698      	mov	r8, r3
10004106:	4284      	cmp	r4, r0
10004108:	d008      	beq.n	1000411c <__eqdf2+0x38>
1000410a:	4814      	ldr	r0, [pc, #80]	; (1000415c <__eqdf2+0x78>)
1000410c:	4282      	cmp	r2, r0
1000410e:	d00d      	beq.n	1000412c <__eqdf2+0x48>
10004110:	2001      	movs	r0, #1
10004112:	4294      	cmp	r4, r2
10004114:	d012      	beq.n	1000413c <__eqdf2+0x58>
10004116:	bc04      	pop	{r2}
10004118:	4690      	mov	r8, r2
1000411a:	bdf0      	pop	{r4, r5, r6, r7, pc}
1000411c:	1c2b      	adds	r3, r5, #0
1000411e:	4333      	orrs	r3, r6
10004120:	2001      	movs	r0, #1
10004122:	2b00      	cmp	r3, #0
10004124:	d1f7      	bne.n	10004116 <__eqdf2+0x32>
10004126:	480d      	ldr	r0, [pc, #52]	; (1000415c <__eqdf2+0x78>)
10004128:	4282      	cmp	r2, r0
1000412a:	d1f1      	bne.n	10004110 <__eqdf2+0x2c>
1000412c:	4663      	mov	r3, ip
1000412e:	433b      	orrs	r3, r7
10004130:	2001      	movs	r0, #1
10004132:	2b00      	cmp	r3, #0
10004134:	d1ef      	bne.n	10004116 <__eqdf2+0x32>
10004136:	2001      	movs	r0, #1
10004138:	4294      	cmp	r4, r2
1000413a:	d1ec      	bne.n	10004116 <__eqdf2+0x32>
1000413c:	42bd      	cmp	r5, r7
1000413e:	d1ea      	bne.n	10004116 <__eqdf2+0x32>
10004140:	4566      	cmp	r6, ip
10004142:	d1e8      	bne.n	10004116 <__eqdf2+0x32>
10004144:	4541      	cmp	r1, r8
10004146:	d006      	beq.n	10004156 <__eqdf2+0x72>
10004148:	2c00      	cmp	r4, #0
1000414a:	d1e4      	bne.n	10004116 <__eqdf2+0x32>
1000414c:	1c28      	adds	r0, r5, #0
1000414e:	4330      	orrs	r0, r6
10004150:	1e45      	subs	r5, r0, #1
10004152:	41a8      	sbcs	r0, r5
10004154:	e7df      	b.n	10004116 <__eqdf2+0x32>
10004156:	2000      	movs	r0, #0
10004158:	e7dd      	b.n	10004116 <__eqdf2+0x32>
1000415a:	46c0      	nop			; (mov r8, r8)
1000415c:	000007ff 	.word	0x000007ff

10004160 <__gedf2>:
10004160:	b5f0      	push	{r4, r5, r6, r7, lr}
10004162:	4657      	mov	r7, sl
10004164:	464e      	mov	r6, r9
10004166:	4645      	mov	r5, r8
10004168:	b4e0      	push	{r5, r6, r7}
1000416a:	1c04      	adds	r4, r0, #0
1000416c:	004e      	lsls	r6, r1, #1
1000416e:	0308      	lsls	r0, r1, #12
10004170:	0fc9      	lsrs	r1, r1, #31
10004172:	468a      	mov	sl, r1
10004174:	1c17      	adds	r7, r2, #0
10004176:	0059      	lsls	r1, r3, #1
10004178:	031a      	lsls	r2, r3, #12
1000417a:	0b05      	lsrs	r5, r0, #12
1000417c:	0d70      	lsrs	r0, r6, #21
1000417e:	0b16      	lsrs	r6, r2, #12
10004180:	0d4a      	lsrs	r2, r1, #21
10004182:	4930      	ldr	r1, [pc, #192]	; (10004244 <__gedf2+0xe4>)
10004184:	0fdb      	lsrs	r3, r3, #31
10004186:	469c      	mov	ip, r3
10004188:	4288      	cmp	r0, r1
1000418a:	d032      	beq.n	100041f2 <__gedf2+0x92>
1000418c:	492d      	ldr	r1, [pc, #180]	; (10004244 <__gedf2+0xe4>)
1000418e:	428a      	cmp	r2, r1
10004190:	d035      	beq.n	100041fe <__gedf2+0x9e>
10004192:	2800      	cmp	r0, #0
10004194:	d10f      	bne.n	100041b6 <__gedf2+0x56>
10004196:	1c29      	adds	r1, r5, #0
10004198:	4321      	orrs	r1, r4
1000419a:	424b      	negs	r3, r1
1000419c:	414b      	adcs	r3, r1
1000419e:	4698      	mov	r8, r3
100041a0:	2a00      	cmp	r2, #0
100041a2:	d00b      	beq.n	100041bc <__gedf2+0x5c>
100041a4:	2b00      	cmp	r3, #0
100041a6:	d11a      	bne.n	100041de <__gedf2+0x7e>
100041a8:	45e2      	cmp	sl, ip
100041aa:	d02c      	beq.n	10004206 <__gedf2+0xa6>
100041ac:	4655      	mov	r5, sl
100041ae:	2d00      	cmp	r5, #0
100041b0:	d118      	bne.n	100041e4 <__gedf2+0x84>
100041b2:	2001      	movs	r0, #1
100041b4:	e018      	b.n	100041e8 <__gedf2+0x88>
100041b6:	2a00      	cmp	r2, #0
100041b8:	d1f6      	bne.n	100041a8 <__gedf2+0x48>
100041ba:	4690      	mov	r8, r2
100041bc:	1c31      	adds	r1, r6, #0
100041be:	4339      	orrs	r1, r7
100041c0:	424b      	negs	r3, r1
100041c2:	414b      	adcs	r3, r1
100041c4:	4641      	mov	r1, r8
100041c6:	2900      	cmp	r1, #0
100041c8:	d106      	bne.n	100041d8 <__gedf2+0x78>
100041ca:	2b00      	cmp	r3, #0
100041cc:	d0ec      	beq.n	100041a8 <__gedf2+0x48>
100041ce:	4656      	mov	r6, sl
100041d0:	2001      	movs	r0, #1
100041d2:	2e00      	cmp	r6, #0
100041d4:	d008      	beq.n	100041e8 <__gedf2+0x88>
100041d6:	e005      	b.n	100041e4 <__gedf2+0x84>
100041d8:	2000      	movs	r0, #0
100041da:	2b00      	cmp	r3, #0
100041dc:	d104      	bne.n	100041e8 <__gedf2+0x88>
100041de:	4667      	mov	r7, ip
100041e0:	2f00      	cmp	r7, #0
100041e2:	d1e6      	bne.n	100041b2 <__gedf2+0x52>
100041e4:	2301      	movs	r3, #1
100041e6:	4258      	negs	r0, r3
100041e8:	bc1c      	pop	{r2, r3, r4}
100041ea:	4690      	mov	r8, r2
100041ec:	4699      	mov	r9, r3
100041ee:	46a2      	mov	sl, r4
100041f0:	bdf0      	pop	{r4, r5, r6, r7, pc}
100041f2:	1c2b      	adds	r3, r5, #0
100041f4:	4323      	orrs	r3, r4
100041f6:	d0c9      	beq.n	1000418c <__gedf2+0x2c>
100041f8:	2102      	movs	r1, #2
100041fa:	4248      	negs	r0, r1
100041fc:	e7f4      	b.n	100041e8 <__gedf2+0x88>
100041fe:	1c33      	adds	r3, r6, #0
10004200:	433b      	orrs	r3, r7
10004202:	d0c6      	beq.n	10004192 <__gedf2+0x32>
10004204:	e7f8      	b.n	100041f8 <__gedf2+0x98>
10004206:	4290      	cmp	r0, r2
10004208:	dc05      	bgt.n	10004216 <__gedf2+0xb6>
1000420a:	da09      	bge.n	10004220 <__gedf2+0xc0>
1000420c:	4652      	mov	r2, sl
1000420e:	2a00      	cmp	r2, #0
10004210:	d0e8      	beq.n	100041e4 <__gedf2+0x84>
10004212:	2001      	movs	r0, #1
10004214:	e7e8      	b.n	100041e8 <__gedf2+0x88>
10004216:	4654      	mov	r4, sl
10004218:	2c00      	cmp	r4, #0
1000421a:	d1e3      	bne.n	100041e4 <__gedf2+0x84>
1000421c:	2001      	movs	r0, #1
1000421e:	e7e3      	b.n	100041e8 <__gedf2+0x88>
10004220:	42b5      	cmp	r5, r6
10004222:	d8c3      	bhi.n	100041ac <__gedf2+0x4c>
10004224:	d007      	beq.n	10004236 <__gedf2+0xd6>
10004226:	2000      	movs	r0, #0
10004228:	42b5      	cmp	r5, r6
1000422a:	d2dd      	bcs.n	100041e8 <__gedf2+0x88>
1000422c:	4650      	mov	r0, sl
1000422e:	2800      	cmp	r0, #0
10004230:	d0d8      	beq.n	100041e4 <__gedf2+0x84>
10004232:	2001      	movs	r0, #1
10004234:	e7d8      	b.n	100041e8 <__gedf2+0x88>
10004236:	42bc      	cmp	r4, r7
10004238:	d8b8      	bhi.n	100041ac <__gedf2+0x4c>
1000423a:	2000      	movs	r0, #0
1000423c:	42bc      	cmp	r4, r7
1000423e:	d3f5      	bcc.n	1000422c <__gedf2+0xcc>
10004240:	e7d2      	b.n	100041e8 <__gedf2+0x88>
10004242:	46c0      	nop			; (mov r8, r8)
10004244:	000007ff 	.word	0x000007ff

10004248 <__ledf2>:
10004248:	b5f0      	push	{r4, r5, r6, r7, lr}
1000424a:	4644      	mov	r4, r8
1000424c:	465f      	mov	r7, fp
1000424e:	4656      	mov	r6, sl
10004250:	464d      	mov	r5, r9
10004252:	b4f0      	push	{r4, r5, r6, r7}
10004254:	4694      	mov	ip, r2
10004256:	1c06      	adds	r6, r0, #0
10004258:	031a      	lsls	r2, r3, #12
1000425a:	0058      	lsls	r0, r3, #1
1000425c:	0b17      	lsrs	r7, r2, #12
1000425e:	0d42      	lsrs	r2, r0, #21
10004260:	482e      	ldr	r0, [pc, #184]	; (1000431c <__ledf2+0xd4>)
10004262:	030d      	lsls	r5, r1, #12
10004264:	004c      	lsls	r4, r1, #1
10004266:	0fdb      	lsrs	r3, r3, #31
10004268:	0b2d      	lsrs	r5, r5, #12
1000426a:	0d64      	lsrs	r4, r4, #21
1000426c:	0fc9      	lsrs	r1, r1, #31
1000426e:	4698      	mov	r8, r3
10004270:	4284      	cmp	r4, r0
10004272:	d033      	beq.n	100042dc <__ledf2+0x94>
10004274:	4829      	ldr	r0, [pc, #164]	; (1000431c <__ledf2+0xd4>)
10004276:	4282      	cmp	r2, r0
10004278:	d036      	beq.n	100042e8 <__ledf2+0xa0>
1000427a:	2c00      	cmp	r4, #0
1000427c:	d019      	beq.n	100042b2 <__ledf2+0x6a>
1000427e:	2a00      	cmp	r2, #0
10004280:	d120      	bne.n	100042c4 <__ledf2+0x7c>
10004282:	4693      	mov	fp, r2
10004284:	4663      	mov	r3, ip
10004286:	433b      	orrs	r3, r7
10004288:	4258      	negs	r0, r3
1000428a:	4158      	adcs	r0, r3
1000428c:	465b      	mov	r3, fp
1000428e:	4682      	mov	sl, r0
10004290:	2b00      	cmp	r3, #0
10004292:	d01d      	beq.n	100042d0 <__ledf2+0x88>
10004294:	4651      	mov	r1, sl
10004296:	2000      	movs	r0, #0
10004298:	2900      	cmp	r1, #0
1000429a:	d104      	bne.n	100042a6 <__ledf2+0x5e>
1000429c:	4642      	mov	r2, r8
1000429e:	2a00      	cmp	r2, #0
100042a0:	d114      	bne.n	100042cc <__ledf2+0x84>
100042a2:	2401      	movs	r4, #1
100042a4:	4260      	negs	r0, r4
100042a6:	bc3c      	pop	{r2, r3, r4, r5}
100042a8:	4690      	mov	r8, r2
100042aa:	4699      	mov	r9, r3
100042ac:	46a2      	mov	sl, r4
100042ae:	46ab      	mov	fp, r5
100042b0:	bdf0      	pop	{r4, r5, r6, r7, pc}
100042b2:	1c2b      	adds	r3, r5, #0
100042b4:	4333      	orrs	r3, r6
100042b6:	4258      	negs	r0, r3
100042b8:	4143      	adcs	r3, r0
100042ba:	469b      	mov	fp, r3
100042bc:	2a00      	cmp	r2, #0
100042be:	d0e1      	beq.n	10004284 <__ledf2+0x3c>
100042c0:	2b00      	cmp	r3, #0
100042c2:	d1eb      	bne.n	1000429c <__ledf2+0x54>
100042c4:	4541      	cmp	r1, r8
100042c6:	d015      	beq.n	100042f4 <__ledf2+0xac>
100042c8:	2900      	cmp	r1, #0
100042ca:	d1ea      	bne.n	100042a2 <__ledf2+0x5a>
100042cc:	2001      	movs	r0, #1
100042ce:	e7ea      	b.n	100042a6 <__ledf2+0x5e>
100042d0:	2800      	cmp	r0, #0
100042d2:	d0f7      	beq.n	100042c4 <__ledf2+0x7c>
100042d4:	2001      	movs	r0, #1
100042d6:	2900      	cmp	r1, #0
100042d8:	d0e5      	beq.n	100042a6 <__ledf2+0x5e>
100042da:	e7e2      	b.n	100042a2 <__ledf2+0x5a>
100042dc:	1c2b      	adds	r3, r5, #0
100042de:	4333      	orrs	r3, r6
100042e0:	2002      	movs	r0, #2
100042e2:	2b00      	cmp	r3, #0
100042e4:	d1df      	bne.n	100042a6 <__ledf2+0x5e>
100042e6:	e7c5      	b.n	10004274 <__ledf2+0x2c>
100042e8:	4663      	mov	r3, ip
100042ea:	433b      	orrs	r3, r7
100042ec:	2002      	movs	r0, #2
100042ee:	2b00      	cmp	r3, #0
100042f0:	d1d9      	bne.n	100042a6 <__ledf2+0x5e>
100042f2:	e7c2      	b.n	1000427a <__ledf2+0x32>
100042f4:	4294      	cmp	r4, r2
100042f6:	dce7      	bgt.n	100042c8 <__ledf2+0x80>
100042f8:	db05      	blt.n	10004306 <__ledf2+0xbe>
100042fa:	42bd      	cmp	r5, r7
100042fc:	d8e4      	bhi.n	100042c8 <__ledf2+0x80>
100042fe:	d006      	beq.n	1000430e <__ledf2+0xc6>
10004300:	2000      	movs	r0, #0
10004302:	42bd      	cmp	r5, r7
10004304:	d2cf      	bcs.n	100042a6 <__ledf2+0x5e>
10004306:	2900      	cmp	r1, #0
10004308:	d0cb      	beq.n	100042a2 <__ledf2+0x5a>
1000430a:	2001      	movs	r0, #1
1000430c:	e7cb      	b.n	100042a6 <__ledf2+0x5e>
1000430e:	4566      	cmp	r6, ip
10004310:	d8da      	bhi.n	100042c8 <__ledf2+0x80>
10004312:	2000      	movs	r0, #0
10004314:	4566      	cmp	r6, ip
10004316:	d3f6      	bcc.n	10004306 <__ledf2+0xbe>
10004318:	e7c5      	b.n	100042a6 <__ledf2+0x5e>
1000431a:	46c0      	nop			; (mov r8, r8)
1000431c:	000007ff 	.word	0x000007ff

10004320 <__aeabi_dmul>:
10004320:	b5f0      	push	{r4, r5, r6, r7, lr}
10004322:	4656      	mov	r6, sl
10004324:	4644      	mov	r4, r8
10004326:	465f      	mov	r7, fp
10004328:	464d      	mov	r5, r9
1000432a:	b4f0      	push	{r4, r5, r6, r7}
1000432c:	004f      	lsls	r7, r1, #1
1000432e:	1c1d      	adds	r5, r3, #0
10004330:	030b      	lsls	r3, r1, #12
10004332:	1c14      	adds	r4, r2, #0
10004334:	0b1a      	lsrs	r2, r3, #12
10004336:	0d7b      	lsrs	r3, r7, #21
10004338:	b087      	sub	sp, #28
1000433a:	1c06      	adds	r6, r0, #0
1000433c:	4692      	mov	sl, r2
1000433e:	4698      	mov	r8, r3
10004340:	0fcf      	lsrs	r7, r1, #31
10004342:	2b00      	cmp	r3, #0
10004344:	d121      	bne.n	1000438a <__aeabi_dmul+0x6a>
10004346:	4302      	orrs	r2, r0
10004348:	d100      	bne.n	1000434c <__aeabi_dmul+0x2c>
1000434a:	e149      	b.n	100045e0 <__aeabi_dmul+0x2c0>
1000434c:	4653      	mov	r3, sl
1000434e:	2b00      	cmp	r3, #0
10004350:	d100      	bne.n	10004354 <__aeabi_dmul+0x34>
10004352:	e1e4      	b.n	1000471e <__aeabi_dmul+0x3fe>
10004354:	4650      	mov	r0, sl
10004356:	f000 ff3b 	bl	100051d0 <__clzsi2>
1000435a:	1e03      	subs	r3, r0, #0
1000435c:	2b27      	cmp	r3, #39	; 0x27
1000435e:	dd00      	ble.n	10004362 <__aeabi_dmul+0x42>
10004360:	e1d8      	b.n	10004714 <__aeabi_dmul+0x3f4>
10004362:	3b08      	subs	r3, #8
10004364:	4651      	mov	r1, sl
10004366:	4099      	lsls	r1, r3
10004368:	2228      	movs	r2, #40	; 0x28
1000436a:	4688      	mov	r8, r1
1000436c:	1a11      	subs	r1, r2, r0
1000436e:	1c32      	adds	r2, r6, #0
10004370:	40ca      	lsrs	r2, r1
10004372:	4641      	mov	r1, r8
10004374:	430a      	orrs	r2, r1
10004376:	4692      	mov	sl, r2
10004378:	409e      	lsls	r6, r3
1000437a:	4bd8      	ldr	r3, [pc, #864]	; (100046dc <__aeabi_dmul+0x3bc>)
1000437c:	2200      	movs	r2, #0
1000437e:	1a18      	subs	r0, r3, r0
10004380:	2100      	movs	r1, #0
10004382:	4680      	mov	r8, r0
10004384:	4691      	mov	r9, r2
10004386:	9103      	str	r1, [sp, #12]
10004388:	e011      	b.n	100043ae <__aeabi_dmul+0x8e>
1000438a:	48d5      	ldr	r0, [pc, #852]	; (100046e0 <__aeabi_dmul+0x3c0>)
1000438c:	4283      	cmp	r3, r0
1000438e:	d03e      	beq.n	1000440e <__aeabi_dmul+0xee>
10004390:	2180      	movs	r1, #128	; 0x80
10004392:	4653      	mov	r3, sl
10004394:	034a      	lsls	r2, r1, #13
10004396:	431a      	orrs	r2, r3
10004398:	00d0      	lsls	r0, r2, #3
1000439a:	0f71      	lsrs	r1, r6, #29
1000439c:	4308      	orrs	r0, r1
1000439e:	4ad1      	ldr	r2, [pc, #836]	; (100046e4 <__aeabi_dmul+0x3c4>)
100043a0:	4682      	mov	sl, r0
100043a2:	2300      	movs	r3, #0
100043a4:	2000      	movs	r0, #0
100043a6:	00f6      	lsls	r6, r6, #3
100043a8:	4490      	add	r8, r2
100043aa:	4699      	mov	r9, r3
100043ac:	9003      	str	r0, [sp, #12]
100043ae:	1c29      	adds	r1, r5, #0
100043b0:	1c20      	adds	r0, r4, #0
100043b2:	1c25      	adds	r5, r4, #0
100043b4:	004a      	lsls	r2, r1, #1
100043b6:	030c      	lsls	r4, r1, #12
100043b8:	0fcb      	lsrs	r3, r1, #31
100043ba:	0b24      	lsrs	r4, r4, #12
100043bc:	0d52      	lsrs	r2, r2, #21
100043be:	469b      	mov	fp, r3
100043c0:	d131      	bne.n	10004426 <__aeabi_dmul+0x106>
100043c2:	1c21      	adds	r1, r4, #0
100043c4:	4301      	orrs	r1, r0
100043c6:	d100      	bne.n	100043ca <__aeabi_dmul+0xaa>
100043c8:	e112      	b.n	100045f0 <__aeabi_dmul+0x2d0>
100043ca:	2c00      	cmp	r4, #0
100043cc:	d100      	bne.n	100043d0 <__aeabi_dmul+0xb0>
100043ce:	e19d      	b.n	1000470c <__aeabi_dmul+0x3ec>
100043d0:	1c20      	adds	r0, r4, #0
100043d2:	f000 fefd 	bl	100051d0 <__clzsi2>
100043d6:	2827      	cmp	r0, #39	; 0x27
100043d8:	dd00      	ble.n	100043dc <__aeabi_dmul+0xbc>
100043da:	e191      	b.n	10004700 <__aeabi_dmul+0x3e0>
100043dc:	1c03      	adds	r3, r0, #0
100043de:	2228      	movs	r2, #40	; 0x28
100043e0:	3b08      	subs	r3, #8
100043e2:	1c29      	adds	r1, r5, #0
100043e4:	1a12      	subs	r2, r2, r0
100043e6:	409c      	lsls	r4, r3
100043e8:	40d1      	lsrs	r1, r2
100043ea:	430c      	orrs	r4, r1
100043ec:	409d      	lsls	r5, r3
100043ee:	4bbb      	ldr	r3, [pc, #748]	; (100046dc <__aeabi_dmul+0x3bc>)
100043f0:	4659      	mov	r1, fp
100043f2:	1a1a      	subs	r2, r3, r0
100043f4:	4079      	eors	r1, r7
100043f6:	2000      	movs	r0, #0
100043f8:	464b      	mov	r3, r9
100043fa:	9101      	str	r1, [sp, #4]
100043fc:	4303      	orrs	r3, r0
100043fe:	2b0f      	cmp	r3, #15
10004400:	d826      	bhi.n	10004450 <__aeabi_dmul+0x130>
10004402:	0099      	lsls	r1, r3, #2
10004404:	4bb8      	ldr	r3, [pc, #736]	; (100046e8 <__aeabi_dmul+0x3c8>)
10004406:	468c      	mov	ip, r1
10004408:	4463      	add	r3, ip
1000440a:	6819      	ldr	r1, [r3, #0]
1000440c:	468f      	mov	pc, r1
1000440e:	1c11      	adds	r1, r2, #0
10004410:	4331      	orrs	r1, r6
10004412:	d000      	beq.n	10004416 <__aeabi_dmul+0xf6>
10004414:	e0df      	b.n	100045d6 <__aeabi_dmul+0x2b6>
10004416:	2608      	movs	r6, #8
10004418:	2000      	movs	r0, #0
1000441a:	2102      	movs	r1, #2
1000441c:	46b1      	mov	r9, r6
1000441e:	4682      	mov	sl, r0
10004420:	2600      	movs	r6, #0
10004422:	9103      	str	r1, [sp, #12]
10004424:	e7c3      	b.n	100043ae <__aeabi_dmul+0x8e>
10004426:	48ae      	ldr	r0, [pc, #696]	; (100046e0 <__aeabi_dmul+0x3c0>)
10004428:	4282      	cmp	r2, r0
1000442a:	d100      	bne.n	1000442e <__aeabi_dmul+0x10e>
1000442c:	e0c9      	b.n	100045c2 <__aeabi_dmul+0x2a2>
1000442e:	2180      	movs	r1, #128	; 0x80
10004430:	034b      	lsls	r3, r1, #13
10004432:	431c      	orrs	r4, r3
10004434:	49ab      	ldr	r1, [pc, #684]	; (100046e4 <__aeabi_dmul+0x3c4>)
10004436:	0f68      	lsrs	r0, r5, #29
10004438:	00e4      	lsls	r4, r4, #3
1000443a:	4304      	orrs	r4, r0
1000443c:	00ed      	lsls	r5, r5, #3
1000443e:	1852      	adds	r2, r2, r1
10004440:	2000      	movs	r0, #0
10004442:	4659      	mov	r1, fp
10004444:	4079      	eors	r1, r7
10004446:	464b      	mov	r3, r9
10004448:	9101      	str	r1, [sp, #4]
1000444a:	4303      	orrs	r3, r0
1000444c:	2b0f      	cmp	r3, #15
1000444e:	d9d8      	bls.n	10004402 <__aeabi_dmul+0xe2>
10004450:	4442      	add	r2, r8
10004452:	0433      	lsls	r3, r6, #16
10004454:	0429      	lsls	r1, r5, #16
10004456:	9204      	str	r2, [sp, #16]
10004458:	0c1a      	lsrs	r2, r3, #16
1000445a:	0c0f      	lsrs	r7, r1, #16
1000445c:	1c10      	adds	r0, r2, #0
1000445e:	4378      	muls	r0, r7
10004460:	0c36      	lsrs	r6, r6, #16
10004462:	1c33      	adds	r3, r6, #0
10004464:	4680      	mov	r8, r0
10004466:	0c2d      	lsrs	r5, r5, #16
10004468:	437b      	muls	r3, r7
1000446a:	1c30      	adds	r0, r6, #0
1000446c:	4368      	muls	r0, r5
1000446e:	1c11      	adds	r1, r2, #0
10004470:	4369      	muls	r1, r5
10004472:	469c      	mov	ip, r3
10004474:	4643      	mov	r3, r8
10004476:	4683      	mov	fp, r0
10004478:	0c18      	lsrs	r0, r3, #16
1000447a:	1808      	adds	r0, r1, r0
1000447c:	4460      	add	r0, ip
1000447e:	4584      	cmp	ip, r0
10004480:	d900      	bls.n	10004484 <__aeabi_dmul+0x164>
10004482:	e11f      	b.n	100046c4 <__aeabi_dmul+0x3a4>
10004484:	0c01      	lsrs	r1, r0, #16
10004486:	4643      	mov	r3, r8
10004488:	9103      	str	r1, [sp, #12]
1000448a:	0419      	lsls	r1, r3, #16
1000448c:	0c0b      	lsrs	r3, r1, #16
1000448e:	0400      	lsls	r0, r0, #16
10004490:	18c0      	adds	r0, r0, r3
10004492:	0421      	lsls	r1, r4, #16
10004494:	0c24      	lsrs	r4, r4, #16
10004496:	9005      	str	r0, [sp, #20]
10004498:	1c10      	adds	r0, r2, #0
1000449a:	4362      	muls	r2, r4
1000449c:	0c09      	lsrs	r1, r1, #16
1000449e:	9202      	str	r2, [sp, #8]
100044a0:	4348      	muls	r0, r1
100044a2:	1c32      	adds	r2, r6, #0
100044a4:	4366      	muls	r6, r4
100044a6:	434a      	muls	r2, r1
100044a8:	9b02      	ldr	r3, [sp, #8]
100044aa:	46b1      	mov	r9, r6
100044ac:	0c06      	lsrs	r6, r0, #16
100044ae:	4690      	mov	r8, r2
100044b0:	46b4      	mov	ip, r6
100044b2:	1c1a      	adds	r2, r3, #0
100044b4:	4462      	add	r2, ip
100044b6:	4442      	add	r2, r8
100044b8:	4590      	cmp	r8, r2
100044ba:	d902      	bls.n	100044c2 <__aeabi_dmul+0x1a2>
100044bc:	2680      	movs	r6, #128	; 0x80
100044be:	0273      	lsls	r3, r6, #9
100044c0:	4499      	add	r9, r3
100044c2:	0c16      	lsrs	r6, r2, #16
100044c4:	46b0      	mov	r8, r6
100044c6:	44c1      	add	r9, r8
100044c8:	0400      	lsls	r0, r0, #16
100044ca:	464b      	mov	r3, r9
100044cc:	0c06      	lsrs	r6, r0, #16
100044ce:	0412      	lsls	r2, r2, #16
100044d0:	9302      	str	r3, [sp, #8]
100044d2:	1993      	adds	r3, r2, r6
100044d4:	4656      	mov	r6, sl
100044d6:	0432      	lsls	r2, r6, #16
100044d8:	0c10      	lsrs	r0, r2, #16
100044da:	1c02      	adds	r2, r0, #0
100044dc:	436a      	muls	r2, r5
100044de:	469c      	mov	ip, r3
100044e0:	1c03      	adds	r3, r0, #0
100044e2:	437b      	muls	r3, r7
100044e4:	4691      	mov	r9, r2
100044e6:	0c32      	lsrs	r2, r6, #16
100044e8:	4357      	muls	r7, r2
100044ea:	4698      	mov	r8, r3
100044ec:	0c1b      	lsrs	r3, r3, #16
100044ee:	469a      	mov	sl, r3
100044f0:	44d1      	add	r9, sl
100044f2:	44b9      	add	r9, r7
100044f4:	4355      	muls	r5, r2
100044f6:	454f      	cmp	r7, r9
100044f8:	d902      	bls.n	10004500 <__aeabi_dmul+0x1e0>
100044fa:	2780      	movs	r7, #128	; 0x80
100044fc:	027e      	lsls	r6, r7, #9
100044fe:	19ad      	adds	r5, r5, r6
10004500:	464b      	mov	r3, r9
10004502:	0c1f      	lsrs	r7, r3, #16
10004504:	4646      	mov	r6, r8
10004506:	19ed      	adds	r5, r5, r7
10004508:	041f      	lsls	r7, r3, #16
1000450a:	0433      	lsls	r3, r6, #16
1000450c:	0c1e      	lsrs	r6, r3, #16
1000450e:	1c03      	adds	r3, r0, #0
10004510:	434b      	muls	r3, r1
10004512:	4360      	muls	r0, r4
10004514:	4351      	muls	r1, r2
10004516:	4354      	muls	r4, r2
10004518:	0c1a      	lsrs	r2, r3, #16
1000451a:	1880      	adds	r0, r0, r2
1000451c:	46b0      	mov	r8, r6
1000451e:	1840      	adds	r0, r0, r1
10004520:	4447      	add	r7, r8
10004522:	469a      	mov	sl, r3
10004524:	4281      	cmp	r1, r0
10004526:	d902      	bls.n	1000452e <__aeabi_dmul+0x20e>
10004528:	2180      	movs	r1, #128	; 0x80
1000452a:	024e      	lsls	r6, r1, #9
1000452c:	19a4      	adds	r4, r4, r6
1000452e:	9b03      	ldr	r3, [sp, #12]
10004530:	1c1a      	adds	r2, r3, #0
10004532:	4462      	add	r2, ip
10004534:	445a      	add	r2, fp
10004536:	4562      	cmp	r2, ip
10004538:	4189      	sbcs	r1, r1
1000453a:	424e      	negs	r6, r1
1000453c:	4651      	mov	r1, sl
1000453e:	46b3      	mov	fp, r6
10004540:	0403      	lsls	r3, r0, #16
10004542:	040e      	lsls	r6, r1, #16
10004544:	469c      	mov	ip, r3
10004546:	9902      	ldr	r1, [sp, #8]
10004548:	0c33      	lsrs	r3, r6, #16
1000454a:	4463      	add	r3, ip
1000454c:	18ce      	adds	r6, r1, r3
1000454e:	46b0      	mov	r8, r6
10004550:	46c2      	mov	sl, r8
10004552:	44da      	add	sl, fp
10004554:	19d2      	adds	r2, r2, r7
10004556:	42ba      	cmp	r2, r7
10004558:	41bf      	sbcs	r7, r7
1000455a:	4651      	mov	r1, sl
1000455c:	427b      	negs	r3, r7
1000455e:	186f      	adds	r7, r5, r1
10004560:	18f9      	adds	r1, r7, r3
10004562:	4699      	mov	r9, r3
10004564:	45da      	cmp	sl, fp
10004566:	419b      	sbcs	r3, r3
10004568:	425e      	negs	r6, r3
1000456a:	9b02      	ldr	r3, [sp, #8]
1000456c:	46b3      	mov	fp, r6
1000456e:	4598      	cmp	r8, r3
10004570:	41b6      	sbcs	r6, r6
10004572:	4276      	negs	r6, r6
10004574:	465b      	mov	r3, fp
10004576:	431e      	orrs	r6, r3
10004578:	0c00      	lsrs	r0, r0, #16
1000457a:	4549      	cmp	r1, r9
1000457c:	419b      	sbcs	r3, r3
1000457e:	42af      	cmp	r7, r5
10004580:	41ad      	sbcs	r5, r5
10004582:	1836      	adds	r6, r6, r0
10004584:	426f      	negs	r7, r5
10004586:	4258      	negs	r0, r3
10004588:	4338      	orrs	r0, r7
1000458a:	1836      	adds	r6, r6, r0
1000458c:	9805      	ldr	r0, [sp, #20]
1000458e:	1934      	adds	r4, r6, r4
10004590:	0256      	lsls	r6, r2, #9
10004592:	4306      	orrs	r6, r0
10004594:	0dcb      	lsrs	r3, r1, #23
10004596:	0264      	lsls	r4, r4, #9
10004598:	1e70      	subs	r0, r6, #1
1000459a:	4186      	sbcs	r6, r0
1000459c:	0dd2      	lsrs	r2, r2, #23
1000459e:	4316      	orrs	r6, r2
100045a0:	0249      	lsls	r1, r1, #9
100045a2:	431c      	orrs	r4, r3
100045a4:	430e      	orrs	r6, r1
100045a6:	01e0      	lsls	r0, r4, #7
100045a8:	d52f      	bpl.n	1000460a <__aeabi_dmul+0x2ea>
100045aa:	2701      	movs	r7, #1
100045ac:	9d04      	ldr	r5, [sp, #16]
100045ae:	4037      	ands	r7, r6
100045b0:	0873      	lsrs	r3, r6, #1
100045b2:	1c3e      	adds	r6, r7, #0
100045b4:	07e0      	lsls	r0, r4, #31
100045b6:	3501      	adds	r5, #1
100045b8:	431e      	orrs	r6, r3
100045ba:	9504      	str	r5, [sp, #16]
100045bc:	4306      	orrs	r6, r0
100045be:	0864      	lsrs	r4, r4, #1
100045c0:	e023      	b.n	1000460a <__aeabi_dmul+0x2ea>
100045c2:	1c23      	adds	r3, r4, #0
100045c4:	432b      	orrs	r3, r5
100045c6:	2003      	movs	r0, #3
100045c8:	2b00      	cmp	r3, #0
100045ca:	d000      	beq.n	100045ce <__aeabi_dmul+0x2ae>
100045cc:	e739      	b.n	10004442 <__aeabi_dmul+0x122>
100045ce:	2400      	movs	r4, #0
100045d0:	2500      	movs	r5, #0
100045d2:	2002      	movs	r0, #2
100045d4:	e735      	b.n	10004442 <__aeabi_dmul+0x122>
100045d6:	220c      	movs	r2, #12
100045d8:	2303      	movs	r3, #3
100045da:	4691      	mov	r9, r2
100045dc:	9303      	str	r3, [sp, #12]
100045de:	e6e6      	b.n	100043ae <__aeabi_dmul+0x8e>
100045e0:	2604      	movs	r6, #4
100045e2:	2300      	movs	r3, #0
100045e4:	2001      	movs	r0, #1
100045e6:	46b1      	mov	r9, r6
100045e8:	469a      	mov	sl, r3
100045ea:	2600      	movs	r6, #0
100045ec:	9003      	str	r0, [sp, #12]
100045ee:	e6de      	b.n	100043ae <__aeabi_dmul+0x8e>
100045f0:	2400      	movs	r4, #0
100045f2:	2500      	movs	r5, #0
100045f4:	2001      	movs	r0, #1
100045f6:	e724      	b.n	10004442 <__aeabi_dmul+0x122>
100045f8:	9803      	ldr	r0, [sp, #12]
100045fa:	4654      	mov	r4, sl
100045fc:	2802      	cmp	r0, #2
100045fe:	d044      	beq.n	1000468a <__aeabi_dmul+0x36a>
10004600:	2803      	cmp	r0, #3
10004602:	d100      	bne.n	10004606 <__aeabi_dmul+0x2e6>
10004604:	e0ea      	b.n	100047dc <__aeabi_dmul+0x4bc>
10004606:	2801      	cmp	r0, #1
10004608:	d060      	beq.n	100046cc <__aeabi_dmul+0x3ac>
1000460a:	9a04      	ldr	r2, [sp, #16]
1000460c:	4937      	ldr	r1, [pc, #220]	; (100046ec <__aeabi_dmul+0x3cc>)
1000460e:	1850      	adds	r0, r2, r1
10004610:	2800      	cmp	r0, #0
10004612:	dc00      	bgt.n	10004616 <__aeabi_dmul+0x2f6>
10004614:	e095      	b.n	10004742 <__aeabi_dmul+0x422>
10004616:	270f      	movs	r7, #15
10004618:	4037      	ands	r7, r6
1000461a:	2f04      	cmp	r7, #4
1000461c:	d005      	beq.n	1000462a <__aeabi_dmul+0x30a>
1000461e:	1d31      	adds	r1, r6, #4
10004620:	42b1      	cmp	r1, r6
10004622:	41b6      	sbcs	r6, r6
10004624:	4275      	negs	r5, r6
10004626:	1964      	adds	r4, r4, r5
10004628:	1c0e      	adds	r6, r1, #0
1000462a:	01e1      	lsls	r1, r4, #7
1000462c:	d505      	bpl.n	1000463a <__aeabi_dmul+0x31a>
1000462e:	4830      	ldr	r0, [pc, #192]	; (100046f0 <__aeabi_dmul+0x3d0>)
10004630:	9a04      	ldr	r2, [sp, #16]
10004632:	2380      	movs	r3, #128	; 0x80
10004634:	00df      	lsls	r7, r3, #3
10004636:	4004      	ands	r4, r0
10004638:	19d0      	adds	r0, r2, r7
1000463a:	492e      	ldr	r1, [pc, #184]	; (100046f4 <__aeabi_dmul+0x3d4>)
1000463c:	4288      	cmp	r0, r1
1000463e:	dc24      	bgt.n	1000468a <__aeabi_dmul+0x36a>
10004640:	9b01      	ldr	r3, [sp, #4]
10004642:	0765      	lsls	r5, r4, #29
10004644:	08f6      	lsrs	r6, r6, #3
10004646:	0264      	lsls	r4, r4, #9
10004648:	0542      	lsls	r2, r0, #21
1000464a:	2701      	movs	r7, #1
1000464c:	432e      	orrs	r6, r5
1000464e:	0b24      	lsrs	r4, r4, #12
10004650:	0d52      	lsrs	r2, r2, #21
10004652:	401f      	ands	r7, r3
10004654:	2000      	movs	r0, #0
10004656:	2100      	movs	r1, #0
10004658:	0d09      	lsrs	r1, r1, #20
1000465a:	050d      	lsls	r5, r1, #20
1000465c:	4325      	orrs	r5, r4
1000465e:	4c26      	ldr	r4, [pc, #152]	; (100046f8 <__aeabi_dmul+0x3d8>)
10004660:	0512      	lsls	r2, r2, #20
10004662:	402c      	ands	r4, r5
10004664:	4314      	orrs	r4, r2
10004666:	0063      	lsls	r3, r4, #1
10004668:	1c30      	adds	r0, r6, #0
1000466a:	085e      	lsrs	r6, r3, #1
1000466c:	07ff      	lsls	r7, r7, #31
1000466e:	1c31      	adds	r1, r6, #0
10004670:	4339      	orrs	r1, r7
10004672:	b007      	add	sp, #28
10004674:	bc3c      	pop	{r2, r3, r4, r5}
10004676:	4690      	mov	r8, r2
10004678:	4699      	mov	r9, r3
1000467a:	46a2      	mov	sl, r4
1000467c:	46ab      	mov	fp, r5
1000467e:	bdf0      	pop	{r4, r5, r6, r7, pc}
10004680:	465a      	mov	r2, fp
10004682:	1c2e      	adds	r6, r5, #0
10004684:	9201      	str	r2, [sp, #4]
10004686:	2802      	cmp	r0, #2
10004688:	d1ba      	bne.n	10004600 <__aeabi_dmul+0x2e0>
1000468a:	9e01      	ldr	r6, [sp, #4]
1000468c:	2701      	movs	r7, #1
1000468e:	4037      	ands	r7, r6
10004690:	4a13      	ldr	r2, [pc, #76]	; (100046e0 <__aeabi_dmul+0x3c0>)
10004692:	2400      	movs	r4, #0
10004694:	2600      	movs	r6, #0
10004696:	e7dd      	b.n	10004654 <__aeabi_dmul+0x334>
10004698:	4654      	mov	r4, sl
1000469a:	9701      	str	r7, [sp, #4]
1000469c:	9803      	ldr	r0, [sp, #12]
1000469e:	e7ad      	b.n	100045fc <__aeabi_dmul+0x2dc>
100046a0:	2601      	movs	r6, #1
100046a2:	2700      	movs	r7, #0
100046a4:	4c15      	ldr	r4, [pc, #84]	; (100046fc <__aeabi_dmul+0x3dc>)
100046a6:	4276      	negs	r6, r6
100046a8:	4a0d      	ldr	r2, [pc, #52]	; (100046e0 <__aeabi_dmul+0x3c0>)
100046aa:	e7d3      	b.n	10004654 <__aeabi_dmul+0x334>
100046ac:	1c2e      	adds	r6, r5, #0
100046ae:	e7a5      	b.n	100045fc <__aeabi_dmul+0x2dc>
100046b0:	2280      	movs	r2, #128	; 0x80
100046b2:	0313      	lsls	r3, r2, #12
100046b4:	4651      	mov	r1, sl
100046b6:	4219      	tst	r1, r3
100046b8:	d135      	bne.n	10004726 <__aeabi_dmul+0x406>
100046ba:	430b      	orrs	r3, r1
100046bc:	031d      	lsls	r5, r3, #12
100046be:	0b2c      	lsrs	r4, r5, #12
100046c0:	4a07      	ldr	r2, [pc, #28]	; (100046e0 <__aeabi_dmul+0x3c0>)
100046c2:	e7c7      	b.n	10004654 <__aeabi_dmul+0x334>
100046c4:	2180      	movs	r1, #128	; 0x80
100046c6:	024b      	lsls	r3, r1, #9
100046c8:	449b      	add	fp, r3
100046ca:	e6db      	b.n	10004484 <__aeabi_dmul+0x164>
100046cc:	9b01      	ldr	r3, [sp, #4]
100046ce:	2200      	movs	r2, #0
100046d0:	4018      	ands	r0, r3
100046d2:	b2c7      	uxtb	r7, r0
100046d4:	2400      	movs	r4, #0
100046d6:	2600      	movs	r6, #0
100046d8:	e7bc      	b.n	10004654 <__aeabi_dmul+0x334>
100046da:	46c0      	nop			; (mov r8, r8)
100046dc:	fffffc0d 	.word	0xfffffc0d
100046e0:	000007ff 	.word	0x000007ff
100046e4:	fffffc01 	.word	0xfffffc01
100046e8:	10005480 	.word	0x10005480
100046ec:	000003ff 	.word	0x000003ff
100046f0:	feffffff 	.word	0xfeffffff
100046f4:	000007fe 	.word	0x000007fe
100046f8:	800fffff 	.word	0x800fffff
100046fc:	000fffff 	.word	0x000fffff
10004700:	1c04      	adds	r4, r0, #0
10004702:	3c28      	subs	r4, #40	; 0x28
10004704:	40a5      	lsls	r5, r4
10004706:	1c2c      	adds	r4, r5, #0
10004708:	2500      	movs	r5, #0
1000470a:	e670      	b.n	100043ee <__aeabi_dmul+0xce>
1000470c:	f000 fd60 	bl	100051d0 <__clzsi2>
10004710:	3020      	adds	r0, #32
10004712:	e660      	b.n	100043d6 <__aeabi_dmul+0xb6>
10004714:	3b28      	subs	r3, #40	; 0x28
10004716:	409e      	lsls	r6, r3
10004718:	46b2      	mov	sl, r6
1000471a:	2600      	movs	r6, #0
1000471c:	e62d      	b.n	1000437a <__aeabi_dmul+0x5a>
1000471e:	f000 fd57 	bl	100051d0 <__clzsi2>
10004722:	3020      	adds	r0, #32
10004724:	e619      	b.n	1000435a <__aeabi_dmul+0x3a>
10004726:	421c      	tst	r4, r3
10004728:	d106      	bne.n	10004738 <__aeabi_dmul+0x418>
1000472a:	431c      	orrs	r4, r3
1000472c:	0326      	lsls	r6, r4, #12
1000472e:	0b34      	lsrs	r4, r6, #12
10004730:	465f      	mov	r7, fp
10004732:	1c2e      	adds	r6, r5, #0
10004734:	4a2e      	ldr	r2, [pc, #184]	; (100047f0 <__aeabi_dmul+0x4d0>)
10004736:	e78d      	b.n	10004654 <__aeabi_dmul+0x334>
10004738:	430b      	orrs	r3, r1
1000473a:	0318      	lsls	r0, r3, #12
1000473c:	0b04      	lsrs	r4, r0, #12
1000473e:	4a2c      	ldr	r2, [pc, #176]	; (100047f0 <__aeabi_dmul+0x4d0>)
10004740:	e788      	b.n	10004654 <__aeabi_dmul+0x334>
10004742:	4f2c      	ldr	r7, [pc, #176]	; (100047f4 <__aeabi_dmul+0x4d4>)
10004744:	9d04      	ldr	r5, [sp, #16]
10004746:	1b7b      	subs	r3, r7, r5
10004748:	2b38      	cmp	r3, #56	; 0x38
1000474a:	dd06      	ble.n	1000475a <__aeabi_dmul+0x43a>
1000474c:	9e01      	ldr	r6, [sp, #4]
1000474e:	2701      	movs	r7, #1
10004750:	4037      	ands	r7, r6
10004752:	2200      	movs	r2, #0
10004754:	2400      	movs	r4, #0
10004756:	2600      	movs	r6, #0
10004758:	e77c      	b.n	10004654 <__aeabi_dmul+0x334>
1000475a:	2b1f      	cmp	r3, #31
1000475c:	dc21      	bgt.n	100047a2 <__aeabi_dmul+0x482>
1000475e:	9a04      	ldr	r2, [sp, #16]
10004760:	4f25      	ldr	r7, [pc, #148]	; (100047f8 <__aeabi_dmul+0x4d8>)
10004762:	1c35      	adds	r5, r6, #0
10004764:	19d1      	adds	r1, r2, r7
10004766:	1c20      	adds	r0, r4, #0
10004768:	408e      	lsls	r6, r1
1000476a:	40dd      	lsrs	r5, r3
1000476c:	4088      	lsls	r0, r1
1000476e:	1c32      	adds	r2, r6, #0
10004770:	4328      	orrs	r0, r5
10004772:	1e56      	subs	r6, r2, #1
10004774:	41b2      	sbcs	r2, r6
10004776:	1c06      	adds	r6, r0, #0
10004778:	4316      	orrs	r6, r2
1000477a:	40dc      	lsrs	r4, r3
1000477c:	230f      	movs	r3, #15
1000477e:	4033      	ands	r3, r6
10004780:	2b04      	cmp	r3, #4
10004782:	d005      	beq.n	10004790 <__aeabi_dmul+0x470>
10004784:	1d37      	adds	r7, r6, #4
10004786:	42b7      	cmp	r7, r6
10004788:	41b6      	sbcs	r6, r6
1000478a:	4271      	negs	r1, r6
1000478c:	1864      	adds	r4, r4, r1
1000478e:	1c3e      	adds	r6, r7, #0
10004790:	0225      	lsls	r5, r4, #8
10004792:	d517      	bpl.n	100047c4 <__aeabi_dmul+0x4a4>
10004794:	9b01      	ldr	r3, [sp, #4]
10004796:	2701      	movs	r7, #1
10004798:	401f      	ands	r7, r3
1000479a:	2201      	movs	r2, #1
1000479c:	2400      	movs	r4, #0
1000479e:	2600      	movs	r6, #0
100047a0:	e758      	b.n	10004654 <__aeabi_dmul+0x334>
100047a2:	4816      	ldr	r0, [pc, #88]	; (100047fc <__aeabi_dmul+0x4dc>)
100047a4:	9a04      	ldr	r2, [sp, #16]
100047a6:	1c21      	adds	r1, r4, #0
100047a8:	1a87      	subs	r7, r0, r2
100047aa:	40f9      	lsrs	r1, r7
100047ac:	1c0d      	adds	r5, r1, #0
100047ae:	2b20      	cmp	r3, #32
100047b0:	d012      	beq.n	100047d8 <__aeabi_dmul+0x4b8>
100047b2:	4b13      	ldr	r3, [pc, #76]	; (10004800 <__aeabi_dmul+0x4e0>)
100047b4:	18d0      	adds	r0, r2, r3
100047b6:	4084      	lsls	r4, r0
100047b8:	4326      	orrs	r6, r4
100047ba:	1e72      	subs	r2, r6, #1
100047bc:	4196      	sbcs	r6, r2
100047be:	432e      	orrs	r6, r5
100047c0:	2400      	movs	r4, #0
100047c2:	e7db      	b.n	1000477c <__aeabi_dmul+0x45c>
100047c4:	9a01      	ldr	r2, [sp, #4]
100047c6:	0765      	lsls	r5, r4, #29
100047c8:	08f6      	lsrs	r6, r6, #3
100047ca:	0260      	lsls	r0, r4, #9
100047cc:	2701      	movs	r7, #1
100047ce:	4017      	ands	r7, r2
100047d0:	432e      	orrs	r6, r5
100047d2:	0b04      	lsrs	r4, r0, #12
100047d4:	2200      	movs	r2, #0
100047d6:	e73d      	b.n	10004654 <__aeabi_dmul+0x334>
100047d8:	2400      	movs	r4, #0
100047da:	e7ed      	b.n	100047b8 <__aeabi_dmul+0x498>
100047dc:	2180      	movs	r1, #128	; 0x80
100047de:	030f      	lsls	r7, r1, #12
100047e0:	433c      	orrs	r4, r7
100047e2:	9801      	ldr	r0, [sp, #4]
100047e4:	0324      	lsls	r4, r4, #12
100047e6:	2701      	movs	r7, #1
100047e8:	0b24      	lsrs	r4, r4, #12
100047ea:	4007      	ands	r7, r0
100047ec:	4a00      	ldr	r2, [pc, #0]	; (100047f0 <__aeabi_dmul+0x4d0>)
100047ee:	e731      	b.n	10004654 <__aeabi_dmul+0x334>
100047f0:	000007ff 	.word	0x000007ff
100047f4:	fffffc02 	.word	0xfffffc02
100047f8:	0000041e 	.word	0x0000041e
100047fc:	fffffbe2 	.word	0xfffffbe2
10004800:	0000043e 	.word	0x0000043e

10004804 <__aeabi_dsub>:
10004804:	b5f0      	push	{r4, r5, r6, r7, lr}
10004806:	4657      	mov	r7, sl
10004808:	464e      	mov	r6, r9
1000480a:	4645      	mov	r5, r8
1000480c:	b4e0      	push	{r5, r6, r7}
1000480e:	1c07      	adds	r7, r0, #0
10004810:	030d      	lsls	r5, r1, #12
10004812:	004e      	lsls	r6, r1, #1
10004814:	0a68      	lsrs	r0, r5, #9
10004816:	0fcc      	lsrs	r4, r1, #31
10004818:	0f79      	lsrs	r1, r7, #29
1000481a:	4308      	orrs	r0, r1
1000481c:	4684      	mov	ip, r0
1000481e:	1c11      	adds	r1, r2, #0
10004820:	0318      	lsls	r0, r3, #12
10004822:	005a      	lsls	r2, r3, #1
10004824:	00fd      	lsls	r5, r7, #3
10004826:	0a40      	lsrs	r0, r0, #9
10004828:	0fdf      	lsrs	r7, r3, #31
1000482a:	0f4b      	lsrs	r3, r1, #29
1000482c:	4318      	orrs	r0, r3
1000482e:	4bca      	ldr	r3, [pc, #808]	; (10004b58 <__aeabi_dsub+0x354>)
10004830:	00c9      	lsls	r1, r1, #3
10004832:	0d76      	lsrs	r6, r6, #21
10004834:	0d52      	lsrs	r2, r2, #21
10004836:	468a      	mov	sl, r1
10004838:	429a      	cmp	r2, r3
1000483a:	d100      	bne.n	1000483e <__aeabi_dsub+0x3a>
1000483c:	e0e0      	b.n	10004a00 <__aeabi_dsub+0x1fc>
1000483e:	2301      	movs	r3, #1
10004840:	405f      	eors	r7, r3
10004842:	46b9      	mov	r9, r7
10004844:	42bc      	cmp	r4, r7
10004846:	d100      	bne.n	1000484a <__aeabi_dsub+0x46>
10004848:	e0a8      	b.n	1000499c <__aeabi_dsub+0x198>
1000484a:	1ab7      	subs	r7, r6, r2
1000484c:	2f00      	cmp	r7, #0
1000484e:	dc00      	bgt.n	10004852 <__aeabi_dsub+0x4e>
10004850:	e110      	b.n	10004a74 <__aeabi_dsub+0x270>
10004852:	2a00      	cmp	r2, #0
10004854:	d112      	bne.n	1000487c <__aeabi_dsub+0x78>
10004856:	4652      	mov	r2, sl
10004858:	4302      	orrs	r2, r0
1000485a:	d100      	bne.n	1000485e <__aeabi_dsub+0x5a>
1000485c:	e0d4      	b.n	10004a08 <__aeabi_dsub+0x204>
1000485e:	3f01      	subs	r7, #1
10004860:	2f00      	cmp	r7, #0
10004862:	d000      	beq.n	10004866 <__aeabi_dsub+0x62>
10004864:	e160      	b.n	10004b28 <__aeabi_dsub+0x324>
10004866:	4651      	mov	r1, sl
10004868:	1a6f      	subs	r7, r5, r1
1000486a:	42bd      	cmp	r5, r7
1000486c:	41ad      	sbcs	r5, r5
1000486e:	4662      	mov	r2, ip
10004870:	426b      	negs	r3, r5
10004872:	1a10      	subs	r0, r2, r0
10004874:	1c3d      	adds	r5, r7, #0
10004876:	1ac3      	subs	r3, r0, r3
10004878:	1c37      	adds	r7, r6, #0
1000487a:	e024      	b.n	100048c6 <__aeabi_dsub+0xc2>
1000487c:	4ab6      	ldr	r2, [pc, #728]	; (10004b58 <__aeabi_dsub+0x354>)
1000487e:	4296      	cmp	r6, r2
10004880:	d100      	bne.n	10004884 <__aeabi_dsub+0x80>
10004882:	e0e3      	b.n	10004a4c <__aeabi_dsub+0x248>
10004884:	2180      	movs	r1, #128	; 0x80
10004886:	040b      	lsls	r3, r1, #16
10004888:	4318      	orrs	r0, r3
1000488a:	2f38      	cmp	r7, #56	; 0x38
1000488c:	dd00      	ble.n	10004890 <__aeabi_dsub+0x8c>
1000488e:	e123      	b.n	10004ad8 <__aeabi_dsub+0x2d4>
10004890:	2f1f      	cmp	r7, #31
10004892:	dd00      	ble.n	10004896 <__aeabi_dsub+0x92>
10004894:	e166      	b.n	10004b64 <__aeabi_dsub+0x360>
10004896:	2120      	movs	r1, #32
10004898:	1bc9      	subs	r1, r1, r7
1000489a:	1c02      	adds	r2, r0, #0
1000489c:	4653      	mov	r3, sl
1000489e:	408a      	lsls	r2, r1
100048a0:	40fb      	lsrs	r3, r7
100048a2:	431a      	orrs	r2, r3
100048a4:	4653      	mov	r3, sl
100048a6:	408b      	lsls	r3, r1
100048a8:	1c19      	adds	r1, r3, #0
100048aa:	1e4b      	subs	r3, r1, #1
100048ac:	4199      	sbcs	r1, r3
100048ae:	1c03      	adds	r3, r0, #0
100048b0:	430a      	orrs	r2, r1
100048b2:	40fb      	lsrs	r3, r7
100048b4:	1aaa      	subs	r2, r5, r2
100048b6:	4667      	mov	r7, ip
100048b8:	4295      	cmp	r5, r2
100048ba:	41ad      	sbcs	r5, r5
100048bc:	1af8      	subs	r0, r7, r3
100048be:	426b      	negs	r3, r5
100048c0:	1ac3      	subs	r3, r0, r3
100048c2:	1c15      	adds	r5, r2, #0
100048c4:	1c37      	adds	r7, r6, #0
100048c6:	021a      	lsls	r2, r3, #8
100048c8:	d400      	bmi.n	100048cc <__aeabi_dsub+0xc8>
100048ca:	e0c7      	b.n	10004a5c <__aeabi_dsub+0x258>
100048cc:	025e      	lsls	r6, r3, #9
100048ce:	0a71      	lsrs	r1, r6, #9
100048d0:	4688      	mov	r8, r1
100048d2:	4642      	mov	r2, r8
100048d4:	2a00      	cmp	r2, #0
100048d6:	d100      	bne.n	100048da <__aeabi_dsub+0xd6>
100048d8:	e0f0      	b.n	10004abc <__aeabi_dsub+0x2b8>
100048da:	4640      	mov	r0, r8
100048dc:	f000 fc78 	bl	100051d0 <__clzsi2>
100048e0:	1c02      	adds	r2, r0, #0
100048e2:	3a08      	subs	r2, #8
100048e4:	2a1f      	cmp	r2, #31
100048e6:	dd00      	ble.n	100048ea <__aeabi_dsub+0xe6>
100048e8:	e0f1      	b.n	10004ace <__aeabi_dsub+0x2ca>
100048ea:	2328      	movs	r3, #40	; 0x28
100048ec:	1a18      	subs	r0, r3, r0
100048ee:	1c2e      	adds	r6, r5, #0
100048f0:	4641      	mov	r1, r8
100048f2:	40c6      	lsrs	r6, r0
100048f4:	4091      	lsls	r1, r2
100048f6:	1c33      	adds	r3, r6, #0
100048f8:	430b      	orrs	r3, r1
100048fa:	4095      	lsls	r5, r2
100048fc:	4297      	cmp	r7, r2
100048fe:	dd00      	ble.n	10004902 <__aeabi_dsub+0xfe>
10004900:	e0a9      	b.n	10004a56 <__aeabi_dsub+0x252>
10004902:	1bd0      	subs	r0, r2, r7
10004904:	1c41      	adds	r1, r0, #1
10004906:	291f      	cmp	r1, #31
10004908:	dd00      	ble.n	1000490c <__aeabi_dsub+0x108>
1000490a:	e112      	b.n	10004b32 <__aeabi_dsub+0x32e>
1000490c:	271f      	movs	r7, #31
1000490e:	1a3a      	subs	r2, r7, r0
10004910:	1c2e      	adds	r6, r5, #0
10004912:	1c18      	adds	r0, r3, #0
10004914:	40ce      	lsrs	r6, r1
10004916:	4090      	lsls	r0, r2
10004918:	4095      	lsls	r5, r2
1000491a:	4330      	orrs	r0, r6
1000491c:	1e6a      	subs	r2, r5, #1
1000491e:	4195      	sbcs	r5, r2
10004920:	40cb      	lsrs	r3, r1
10004922:	4305      	orrs	r5, r0
10004924:	2101      	movs	r1, #1
10004926:	2700      	movs	r7, #0
10004928:	260f      	movs	r6, #15
1000492a:	402e      	ands	r6, r5
1000492c:	2e04      	cmp	r6, #4
1000492e:	d100      	bne.n	10004932 <__aeabi_dsub+0x12e>
10004930:	e072      	b.n	10004a18 <__aeabi_dsub+0x214>
10004932:	1d2e      	adds	r6, r5, #4
10004934:	42ae      	cmp	r6, r5
10004936:	41ad      	sbcs	r5, r5
10004938:	4268      	negs	r0, r5
1000493a:	2280      	movs	r2, #128	; 0x80
1000493c:	181b      	adds	r3, r3, r0
1000493e:	2501      	movs	r5, #1
10004940:	0410      	lsls	r0, r2, #16
10004942:	4018      	ands	r0, r3
10004944:	402c      	ands	r4, r5
10004946:	2800      	cmp	r0, #0
10004948:	d007      	beq.n	1000495a <__aeabi_dsub+0x156>
1000494a:	4f83      	ldr	r7, [pc, #524]	; (10004b58 <__aeabi_dsub+0x354>)
1000494c:	42b9      	cmp	r1, r7
1000494e:	d100      	bne.n	10004952 <__aeabi_dsub+0x14e>
10004950:	e0b0      	b.n	10004ab4 <__aeabi_dsub+0x2b0>
10004952:	4a82      	ldr	r2, [pc, #520]	; (10004b5c <__aeabi_dsub+0x358>)
10004954:	1c0f      	adds	r7, r1, #0
10004956:	4013      	ands	r3, r2
10004958:	3101      	adds	r1, #1
1000495a:	08f2      	lsrs	r2, r6, #3
1000495c:	0549      	lsls	r1, r1, #21
1000495e:	075e      	lsls	r6, r3, #29
10004960:	4332      	orrs	r2, r6
10004962:	08db      	lsrs	r3, r3, #3
10004964:	0d48      	lsrs	r0, r1, #21
10004966:	2801      	cmp	r0, #1
10004968:	dc00      	bgt.n	1000496c <__aeabi_dsub+0x168>
1000496a:	e079      	b.n	10004a60 <__aeabi_dsub+0x25c>
1000496c:	031b      	lsls	r3, r3, #12
1000496e:	0578      	lsls	r0, r7, #21
10004970:	0b1e      	lsrs	r6, r3, #12
10004972:	0d47      	lsrs	r7, r0, #21
10004974:	2000      	movs	r0, #0
10004976:	2100      	movs	r1, #0
10004978:	0d09      	lsrs	r1, r1, #20
1000497a:	057d      	lsls	r5, r7, #21
1000497c:	050b      	lsls	r3, r1, #20
1000497e:	4f78      	ldr	r7, [pc, #480]	; (10004b60 <__aeabi_dsub+0x35c>)
10004980:	431e      	orrs	r6, r3
10004982:	1c10      	adds	r0, r2, #0
10004984:	4037      	ands	r7, r6
10004986:	086a      	lsrs	r2, r5, #1
10004988:	4317      	orrs	r7, r2
1000498a:	007e      	lsls	r6, r7, #1
1000498c:	0871      	lsrs	r1, r6, #1
1000498e:	07e4      	lsls	r4, r4, #31
10004990:	4321      	orrs	r1, r4
10004992:	bc1c      	pop	{r2, r3, r4}
10004994:	4690      	mov	r8, r2
10004996:	4699      	mov	r9, r3
10004998:	46a2      	mov	sl, r4
1000499a:	bdf0      	pop	{r4, r5, r6, r7, pc}
1000499c:	1ab3      	subs	r3, r6, r2
1000499e:	2b00      	cmp	r3, #0
100049a0:	dc00      	bgt.n	100049a4 <__aeabi_dsub+0x1a0>
100049a2:	e0a6      	b.n	10004af2 <__aeabi_dsub+0x2ee>
100049a4:	2a00      	cmp	r2, #0
100049a6:	d03e      	beq.n	10004a26 <__aeabi_dsub+0x222>
100049a8:	4a6b      	ldr	r2, [pc, #428]	; (10004b58 <__aeabi_dsub+0x354>)
100049aa:	4296      	cmp	r6, r2
100049ac:	d04e      	beq.n	10004a4c <__aeabi_dsub+0x248>
100049ae:	2180      	movs	r1, #128	; 0x80
100049b0:	040f      	lsls	r7, r1, #16
100049b2:	4338      	orrs	r0, r7
100049b4:	2b38      	cmp	r3, #56	; 0x38
100049b6:	dc00      	bgt.n	100049ba <__aeabi_dsub+0x1b6>
100049b8:	e118      	b.n	10004bec <__aeabi_dsub+0x3e8>
100049ba:	4653      	mov	r3, sl
100049bc:	4318      	orrs	r0, r3
100049be:	2700      	movs	r7, #0
100049c0:	2200      	movs	r2, #0
100049c2:	2800      	cmp	r0, #0
100049c4:	d000      	beq.n	100049c8 <__aeabi_dsub+0x1c4>
100049c6:	2201      	movs	r2, #1
100049c8:	1952      	adds	r2, r2, r5
100049ca:	42aa      	cmp	r2, r5
100049cc:	41ad      	sbcs	r5, r5
100049ce:	4467      	add	r7, ip
100049d0:	426b      	negs	r3, r5
100049d2:	18fb      	adds	r3, r7, r3
100049d4:	1c15      	adds	r5, r2, #0
100049d6:	1c37      	adds	r7, r6, #0
100049d8:	021e      	lsls	r6, r3, #8
100049da:	d53f      	bpl.n	10004a5c <__aeabi_dsub+0x258>
100049dc:	485e      	ldr	r0, [pc, #376]	; (10004b58 <__aeabi_dsub+0x354>)
100049de:	1c7e      	adds	r6, r7, #1
100049e0:	4286      	cmp	r6, r0
100049e2:	d100      	bne.n	100049e6 <__aeabi_dsub+0x1e2>
100049e4:	e17b      	b.n	10004cde <__aeabi_dsub+0x4da>
100049e6:	495d      	ldr	r1, [pc, #372]	; (10004b5c <__aeabi_dsub+0x358>)
100049e8:	2201      	movs	r2, #1
100049ea:	402a      	ands	r2, r5
100049ec:	400b      	ands	r3, r1
100049ee:	0868      	lsrs	r0, r5, #1
100049f0:	1c15      	adds	r5, r2, #0
100049f2:	07d9      	lsls	r1, r3, #31
100049f4:	4305      	orrs	r5, r0
100049f6:	430d      	orrs	r5, r1
100049f8:	085b      	lsrs	r3, r3, #1
100049fa:	1cb9      	adds	r1, r7, #2
100049fc:	1c37      	adds	r7, r6, #0
100049fe:	e793      	b.n	10004928 <__aeabi_dsub+0x124>
10004a00:	4301      	orrs	r1, r0
10004a02:	d100      	bne.n	10004a06 <__aeabi_dsub+0x202>
10004a04:	e71b      	b.n	1000483e <__aeabi_dsub+0x3a>
10004a06:	e71c      	b.n	10004842 <__aeabi_dsub+0x3e>
10004a08:	1c71      	adds	r1, r6, #1
10004a0a:	1c37      	adds	r7, r6, #0
10004a0c:	260f      	movs	r6, #15
10004a0e:	4663      	mov	r3, ip
10004a10:	402e      	ands	r6, r5
10004a12:	2e04      	cmp	r6, #4
10004a14:	d000      	beq.n	10004a18 <__aeabi_dsub+0x214>
10004a16:	e78c      	b.n	10004932 <__aeabi_dsub+0x12e>
10004a18:	2280      	movs	r2, #128	; 0x80
10004a1a:	2601      	movs	r6, #1
10004a1c:	0410      	lsls	r0, r2, #16
10004a1e:	4034      	ands	r4, r6
10004a20:	4018      	ands	r0, r3
10004a22:	1c2e      	adds	r6, r5, #0
10004a24:	e78f      	b.n	10004946 <__aeabi_dsub+0x142>
10004a26:	4652      	mov	r2, sl
10004a28:	4302      	orrs	r2, r0
10004a2a:	d0ed      	beq.n	10004a08 <__aeabi_dsub+0x204>
10004a2c:	3b01      	subs	r3, #1
10004a2e:	2b00      	cmp	r3, #0
10004a30:	d109      	bne.n	10004a46 <__aeabi_dsub+0x242>
10004a32:	4657      	mov	r7, sl
10004a34:	1979      	adds	r1, r7, r5
10004a36:	42a9      	cmp	r1, r5
10004a38:	4192      	sbcs	r2, r2
10004a3a:	4255      	negs	r5, r2
10004a3c:	4460      	add	r0, ip
10004a3e:	1943      	adds	r3, r0, r5
10004a40:	1c37      	adds	r7, r6, #0
10004a42:	1c0d      	adds	r5, r1, #0
10004a44:	e7c8      	b.n	100049d8 <__aeabi_dsub+0x1d4>
10004a46:	4944      	ldr	r1, [pc, #272]	; (10004b58 <__aeabi_dsub+0x354>)
10004a48:	428e      	cmp	r6, r1
10004a4a:	d1b3      	bne.n	100049b4 <__aeabi_dsub+0x1b0>
10004a4c:	2080      	movs	r0, #128	; 0x80
10004a4e:	4663      	mov	r3, ip
10004a50:	0101      	lsls	r1, r0, #4
10004a52:	1c37      	adds	r7, r6, #0
10004a54:	e768      	b.n	10004928 <__aeabi_dsub+0x124>
10004a56:	1abf      	subs	r7, r7, r2
10004a58:	4a40      	ldr	r2, [pc, #256]	; (10004b5c <__aeabi_dsub+0x358>)
10004a5a:	4013      	ands	r3, r2
10004a5c:	1c79      	adds	r1, r7, #1
10004a5e:	e763      	b.n	10004928 <__aeabi_dsub+0x124>
10004a60:	1c15      	adds	r5, r2, #0
10004a62:	431d      	orrs	r5, r3
10004a64:	d100      	bne.n	10004a68 <__aeabi_dsub+0x264>
10004a66:	e221      	b.n	10004eac <__aeabi_dsub+0x6a8>
10004a68:	2f00      	cmp	r7, #0
10004a6a:	d03e      	beq.n	10004aea <__aeabi_dsub+0x2e6>
10004a6c:	2680      	movs	r6, #128	; 0x80
10004a6e:	0331      	lsls	r1, r6, #12
10004a70:	430b      	orrs	r3, r1
10004a72:	e77b      	b.n	1000496c <__aeabi_dsub+0x168>
10004a74:	2f00      	cmp	r7, #0
10004a76:	d000      	beq.n	10004a7a <__aeabi_dsub+0x276>
10004a78:	e086      	b.n	10004b88 <__aeabi_dsub+0x384>
10004a7a:	1c72      	adds	r2, r6, #1
10004a7c:	0551      	lsls	r1, r2, #21
10004a7e:	0d4b      	lsrs	r3, r1, #21
10004a80:	2b01      	cmp	r3, #1
10004a82:	dc00      	bgt.n	10004a86 <__aeabi_dsub+0x282>
10004a84:	e0f0      	b.n	10004c68 <__aeabi_dsub+0x464>
10004a86:	4657      	mov	r7, sl
10004a88:	1bea      	subs	r2, r5, r7
10004a8a:	4295      	cmp	r5, r2
10004a8c:	419b      	sbcs	r3, r3
10004a8e:	4667      	mov	r7, ip
10004a90:	1a39      	subs	r1, r7, r0
10004a92:	425b      	negs	r3, r3
10004a94:	1ac9      	subs	r1, r1, r3
10004a96:	4688      	mov	r8, r1
10004a98:	020b      	lsls	r3, r1, #8
10004a9a:	d400      	bmi.n	10004a9e <__aeabi_dsub+0x29a>
10004a9c:	e09d      	b.n	10004bda <__aeabi_dsub+0x3d6>
10004a9e:	4654      	mov	r4, sl
10004aa0:	1b65      	subs	r5, r4, r5
10004aa2:	45aa      	cmp	sl, r5
10004aa4:	4192      	sbcs	r2, r2
10004aa6:	1bc0      	subs	r0, r0, r7
10004aa8:	4257      	negs	r7, r2
10004aaa:	1bc3      	subs	r3, r0, r7
10004aac:	4698      	mov	r8, r3
10004aae:	1c37      	adds	r7, r6, #0
10004ab0:	464c      	mov	r4, r9
10004ab2:	e70e      	b.n	100048d2 <__aeabi_dsub+0xce>
10004ab4:	1c0f      	adds	r7, r1, #0
10004ab6:	2600      	movs	r6, #0
10004ab8:	2200      	movs	r2, #0
10004aba:	e75b      	b.n	10004974 <__aeabi_dsub+0x170>
10004abc:	1c28      	adds	r0, r5, #0
10004abe:	f000 fb87 	bl	100051d0 <__clzsi2>
10004ac2:	3020      	adds	r0, #32
10004ac4:	1c02      	adds	r2, r0, #0
10004ac6:	3a08      	subs	r2, #8
10004ac8:	2a1f      	cmp	r2, #31
10004aca:	dc00      	bgt.n	10004ace <__aeabi_dsub+0x2ca>
10004acc:	e70d      	b.n	100048ea <__aeabi_dsub+0xe6>
10004ace:	3828      	subs	r0, #40	; 0x28
10004ad0:	4085      	lsls	r5, r0
10004ad2:	1c2b      	adds	r3, r5, #0
10004ad4:	2500      	movs	r5, #0
10004ad6:	e711      	b.n	100048fc <__aeabi_dsub+0xf8>
10004ad8:	4657      	mov	r7, sl
10004ada:	4338      	orrs	r0, r7
10004adc:	2300      	movs	r3, #0
10004ade:	2200      	movs	r2, #0
10004ae0:	2800      	cmp	r0, #0
10004ae2:	d100      	bne.n	10004ae6 <__aeabi_dsub+0x2e2>
10004ae4:	e6e6      	b.n	100048b4 <__aeabi_dsub+0xb0>
10004ae6:	2201      	movs	r2, #1
10004ae8:	e6e4      	b.n	100048b4 <__aeabi_dsub+0xb0>
10004aea:	031d      	lsls	r5, r3, #12
10004aec:	0b2e      	lsrs	r6, r5, #12
10004aee:	2700      	movs	r7, #0
10004af0:	e740      	b.n	10004974 <__aeabi_dsub+0x170>
10004af2:	2b00      	cmp	r3, #0
10004af4:	d000      	beq.n	10004af8 <__aeabi_dsub+0x2f4>
10004af6:	e0d9      	b.n	10004cac <__aeabi_dsub+0x4a8>
10004af8:	1c77      	adds	r7, r6, #1
10004afa:	0579      	lsls	r1, r7, #21
10004afc:	0d4a      	lsrs	r2, r1, #21
10004afe:	2a01      	cmp	r2, #1
10004b00:	dc00      	bgt.n	10004b04 <__aeabi_dsub+0x300>
10004b02:	e095      	b.n	10004c30 <__aeabi_dsub+0x42c>
10004b04:	4b14      	ldr	r3, [pc, #80]	; (10004b58 <__aeabi_dsub+0x354>)
10004b06:	429f      	cmp	r7, r3
10004b08:	d100      	bne.n	10004b0c <__aeabi_dsub+0x308>
10004b0a:	e0fe      	b.n	10004d0a <__aeabi_dsub+0x506>
10004b0c:	4651      	mov	r1, sl
10004b0e:	1949      	adds	r1, r1, r5
10004b10:	42a9      	cmp	r1, r5
10004b12:	41ad      	sbcs	r5, r5
10004b14:	4662      	mov	r2, ip
10004b16:	426b      	negs	r3, r5
10004b18:	1880      	adds	r0, r0, r2
10004b1a:	18c2      	adds	r2, r0, r3
10004b1c:	0849      	lsrs	r1, r1, #1
10004b1e:	07d5      	lsls	r5, r2, #31
10004b20:	430d      	orrs	r5, r1
10004b22:	0853      	lsrs	r3, r2, #1
10004b24:	1cb1      	adds	r1, r6, #2
10004b26:	e6ff      	b.n	10004928 <__aeabi_dsub+0x124>
10004b28:	490b      	ldr	r1, [pc, #44]	; (10004b58 <__aeabi_dsub+0x354>)
10004b2a:	428e      	cmp	r6, r1
10004b2c:	d000      	beq.n	10004b30 <__aeabi_dsub+0x32c>
10004b2e:	e6ac      	b.n	1000488a <__aeabi_dsub+0x86>
10004b30:	e78c      	b.n	10004a4c <__aeabi_dsub+0x248>
10004b32:	1c06      	adds	r6, r0, #0
10004b34:	3e1f      	subs	r6, #31
10004b36:	1c1f      	adds	r7, r3, #0
10004b38:	40f7      	lsrs	r7, r6
10004b3a:	1c3e      	adds	r6, r7, #0
10004b3c:	2920      	cmp	r1, #32
10004b3e:	d073      	beq.n	10004c28 <__aeabi_dsub+0x424>
10004b40:	223f      	movs	r2, #63	; 0x3f
10004b42:	1a10      	subs	r0, r2, r0
10004b44:	4083      	lsls	r3, r0
10004b46:	431d      	orrs	r5, r3
10004b48:	1e6b      	subs	r3, r5, #1
10004b4a:	419d      	sbcs	r5, r3
10004b4c:	4335      	orrs	r5, r6
10004b4e:	2101      	movs	r1, #1
10004b50:	2300      	movs	r3, #0
10004b52:	2700      	movs	r7, #0
10004b54:	e6e8      	b.n	10004928 <__aeabi_dsub+0x124>
10004b56:	46c0      	nop			; (mov r8, r8)
10004b58:	000007ff 	.word	0x000007ff
10004b5c:	ff7fffff 	.word	0xff7fffff
10004b60:	800fffff 	.word	0x800fffff
10004b64:	1c3b      	adds	r3, r7, #0
10004b66:	3b20      	subs	r3, #32
10004b68:	1c01      	adds	r1, r0, #0
10004b6a:	40d9      	lsrs	r1, r3
10004b6c:	1c0b      	adds	r3, r1, #0
10004b6e:	2f20      	cmp	r7, #32
10004b70:	d05c      	beq.n	10004c2c <__aeabi_dsub+0x428>
10004b72:	2240      	movs	r2, #64	; 0x40
10004b74:	1bd7      	subs	r7, r2, r7
10004b76:	40b8      	lsls	r0, r7
10004b78:	1c02      	adds	r2, r0, #0
10004b7a:	4650      	mov	r0, sl
10004b7c:	4302      	orrs	r2, r0
10004b7e:	1e51      	subs	r1, r2, #1
10004b80:	418a      	sbcs	r2, r1
10004b82:	431a      	orrs	r2, r3
10004b84:	2300      	movs	r3, #0
10004b86:	e695      	b.n	100048b4 <__aeabi_dsub+0xb0>
10004b88:	427f      	negs	r7, r7
10004b8a:	2e00      	cmp	r6, #0
10004b8c:	d040      	beq.n	10004c10 <__aeabi_dsub+0x40c>
10004b8e:	4cca      	ldr	r4, [pc, #808]	; (10004eb8 <__aeabi_dsub+0x6b4>)
10004b90:	42a2      	cmp	r2, r4
10004b92:	d100      	bne.n	10004b96 <__aeabi_dsub+0x392>
10004b94:	e11f      	b.n	10004dd6 <__aeabi_dsub+0x5d2>
10004b96:	2180      	movs	r1, #128	; 0x80
10004b98:	4666      	mov	r6, ip
10004b9a:	040b      	lsls	r3, r1, #16
10004b9c:	431e      	orrs	r6, r3
10004b9e:	46b4      	mov	ip, r6
10004ba0:	2f38      	cmp	r7, #56	; 0x38
10004ba2:	dd00      	ble.n	10004ba6 <__aeabi_dsub+0x3a2>
10004ba4:	e0a9      	b.n	10004cfa <__aeabi_dsub+0x4f6>
10004ba6:	2f1f      	cmp	r7, #31
10004ba8:	dd00      	ble.n	10004bac <__aeabi_dsub+0x3a8>
10004baa:	e13d      	b.n	10004e28 <__aeabi_dsub+0x624>
10004bac:	2320      	movs	r3, #32
10004bae:	1bde      	subs	r6, r3, r7
10004bb0:	1c29      	adds	r1, r5, #0
10004bb2:	4664      	mov	r4, ip
10004bb4:	40b4      	lsls	r4, r6
10004bb6:	40f9      	lsrs	r1, r7
10004bb8:	40b5      	lsls	r5, r6
10004bba:	1e6b      	subs	r3, r5, #1
10004bbc:	419d      	sbcs	r5, r3
10004bbe:	4321      	orrs	r1, r4
10004bc0:	4663      	mov	r3, ip
10004bc2:	430d      	orrs	r5, r1
10004bc4:	40fb      	lsrs	r3, r7
10004bc6:	4657      	mov	r7, sl
10004bc8:	1b7d      	subs	r5, r7, r5
10004bca:	1ac0      	subs	r0, r0, r3
10004bcc:	45aa      	cmp	sl, r5
10004bce:	419b      	sbcs	r3, r3
10004bd0:	425f      	negs	r7, r3
10004bd2:	1bc3      	subs	r3, r0, r7
10004bd4:	464c      	mov	r4, r9
10004bd6:	1c17      	adds	r7, r2, #0
10004bd8:	e675      	b.n	100048c6 <__aeabi_dsub+0xc2>
10004bda:	1c0d      	adds	r5, r1, #0
10004bdc:	4315      	orrs	r5, r2
10004bde:	d120      	bne.n	10004c22 <__aeabi_dsub+0x41e>
10004be0:	2400      	movs	r4, #0
10004be2:	2101      	movs	r1, #1
10004be4:	2300      	movs	r3, #0
10004be6:	2604      	movs	r6, #4
10004be8:	2700      	movs	r7, #0
10004bea:	e6b6      	b.n	1000495a <__aeabi_dsub+0x156>
10004bec:	2b1f      	cmp	r3, #31
10004bee:	dc4a      	bgt.n	10004c86 <__aeabi_dsub+0x482>
10004bf0:	2120      	movs	r1, #32
10004bf2:	1ac9      	subs	r1, r1, r3
10004bf4:	1c07      	adds	r7, r0, #0
10004bf6:	4652      	mov	r2, sl
10004bf8:	408f      	lsls	r7, r1
10004bfa:	40da      	lsrs	r2, r3
10004bfc:	433a      	orrs	r2, r7
10004bfe:	4657      	mov	r7, sl
10004c00:	408f      	lsls	r7, r1
10004c02:	1c39      	adds	r1, r7, #0
10004c04:	1e4f      	subs	r7, r1, #1
10004c06:	41b9      	sbcs	r1, r7
10004c08:	40d8      	lsrs	r0, r3
10004c0a:	430a      	orrs	r2, r1
10004c0c:	1c07      	adds	r7, r0, #0
10004c0e:	e6db      	b.n	100049c8 <__aeabi_dsub+0x1c4>
10004c10:	4664      	mov	r4, ip
10004c12:	432c      	orrs	r4, r5
10004c14:	d169      	bne.n	10004cea <__aeabi_dsub+0x4e6>
10004c16:	1c51      	adds	r1, r2, #1
10004c18:	1c03      	adds	r3, r0, #0
10004c1a:	4655      	mov	r5, sl
10004c1c:	1c17      	adds	r7, r2, #0
10004c1e:	464c      	mov	r4, r9
10004c20:	e682      	b.n	10004928 <__aeabi_dsub+0x124>
10004c22:	1c15      	adds	r5, r2, #0
10004c24:	1c37      	adds	r7, r6, #0
10004c26:	e654      	b.n	100048d2 <__aeabi_dsub+0xce>
10004c28:	2300      	movs	r3, #0
10004c2a:	e78c      	b.n	10004b46 <__aeabi_dsub+0x342>
10004c2c:	2200      	movs	r2, #0
10004c2e:	e7a4      	b.n	10004b7a <__aeabi_dsub+0x376>
10004c30:	4667      	mov	r7, ip
10004c32:	432f      	orrs	r7, r5
10004c34:	2e00      	cmp	r6, #0
10004c36:	d000      	beq.n	10004c3a <__aeabi_dsub+0x436>
10004c38:	e0d4      	b.n	10004de4 <__aeabi_dsub+0x5e0>
10004c3a:	2f00      	cmp	r7, #0
10004c3c:	d100      	bne.n	10004c40 <__aeabi_dsub+0x43c>
10004c3e:	e126      	b.n	10004e8e <__aeabi_dsub+0x68a>
10004c40:	4653      	mov	r3, sl
10004c42:	4303      	orrs	r3, r0
10004c44:	d100      	bne.n	10004c48 <__aeabi_dsub+0x444>
10004c46:	e0e4      	b.n	10004e12 <__aeabi_dsub+0x60e>
10004c48:	4651      	mov	r1, sl
10004c4a:	194f      	adds	r7, r1, r5
10004c4c:	42af      	cmp	r7, r5
10004c4e:	41ad      	sbcs	r5, r5
10004c50:	4460      	add	r0, ip
10004c52:	426e      	negs	r6, r5
10004c54:	1983      	adds	r3, r0, r6
10004c56:	021e      	lsls	r6, r3, #8
10004c58:	d400      	bmi.n	10004c5c <__aeabi_dsub+0x458>
10004c5a:	e14e      	b.n	10004efa <__aeabi_dsub+0x6f6>
10004c5c:	4897      	ldr	r0, [pc, #604]	; (10004ebc <__aeabi_dsub+0x6b8>)
10004c5e:	1c3d      	adds	r5, r7, #0
10004c60:	4003      	ands	r3, r0
10004c62:	2102      	movs	r1, #2
10004c64:	2701      	movs	r7, #1
10004c66:	e65f      	b.n	10004928 <__aeabi_dsub+0x124>
10004c68:	4661      	mov	r1, ip
10004c6a:	4329      	orrs	r1, r5
10004c6c:	2e00      	cmp	r6, #0
10004c6e:	d129      	bne.n	10004cc4 <__aeabi_dsub+0x4c0>
10004c70:	2900      	cmp	r1, #0
10004c72:	d176      	bne.n	10004d62 <__aeabi_dsub+0x55e>
10004c74:	4651      	mov	r1, sl
10004c76:	4301      	orrs	r1, r0
10004c78:	d0b2      	beq.n	10004be0 <__aeabi_dsub+0x3dc>
10004c7a:	1c03      	adds	r3, r0, #0
10004c7c:	4655      	mov	r5, sl
10004c7e:	464c      	mov	r4, r9
10004c80:	2101      	movs	r1, #1
10004c82:	2700      	movs	r7, #0
10004c84:	e650      	b.n	10004928 <__aeabi_dsub+0x124>
10004c86:	1c1f      	adds	r7, r3, #0
10004c88:	3f20      	subs	r7, #32
10004c8a:	1c01      	adds	r1, r0, #0
10004c8c:	40f9      	lsrs	r1, r7
10004c8e:	1c0f      	adds	r7, r1, #0
10004c90:	2b20      	cmp	r3, #32
10004c92:	d100      	bne.n	10004c96 <__aeabi_dsub+0x492>
10004c94:	e0c6      	b.n	10004e24 <__aeabi_dsub+0x620>
10004c96:	2240      	movs	r2, #64	; 0x40
10004c98:	1ad3      	subs	r3, r2, r3
10004c9a:	4098      	lsls	r0, r3
10004c9c:	1c02      	adds	r2, r0, #0
10004c9e:	4650      	mov	r0, sl
10004ca0:	4302      	orrs	r2, r0
10004ca2:	1e53      	subs	r3, r2, #1
10004ca4:	419a      	sbcs	r2, r3
10004ca6:	433a      	orrs	r2, r7
10004ca8:	2700      	movs	r7, #0
10004caa:	e68d      	b.n	100049c8 <__aeabi_dsub+0x1c4>
10004cac:	425b      	negs	r3, r3
10004cae:	2e00      	cmp	r6, #0
10004cb0:	d130      	bne.n	10004d14 <__aeabi_dsub+0x510>
10004cb2:	4667      	mov	r7, ip
10004cb4:	432f      	orrs	r7, r5
10004cb6:	d000      	beq.n	10004cba <__aeabi_dsub+0x4b6>
10004cb8:	e0c8      	b.n	10004e4c <__aeabi_dsub+0x648>
10004cba:	1c51      	adds	r1, r2, #1
10004cbc:	1c03      	adds	r3, r0, #0
10004cbe:	4655      	mov	r5, sl
10004cc0:	1c17      	adds	r7, r2, #0
10004cc2:	e631      	b.n	10004928 <__aeabi_dsub+0x124>
10004cc4:	2900      	cmp	r1, #0
10004cc6:	d165      	bne.n	10004d94 <__aeabi_dsub+0x590>
10004cc8:	4657      	mov	r7, sl
10004cca:	4307      	orrs	r7, r0
10004ccc:	d100      	bne.n	10004cd0 <__aeabi_dsub+0x4cc>
10004cce:	e0c8      	b.n	10004e62 <__aeabi_dsub+0x65e>
10004cd0:	1c03      	adds	r3, r0, #0
10004cd2:	2080      	movs	r0, #128	; 0x80
10004cd4:	4655      	mov	r5, sl
10004cd6:	464c      	mov	r4, r9
10004cd8:	0101      	lsls	r1, r0, #4
10004cda:	4f77      	ldr	r7, [pc, #476]	; (10004eb8 <__aeabi_dsub+0x6b4>)
10004cdc:	e624      	b.n	10004928 <__aeabi_dsub+0x124>
10004cde:	2380      	movs	r3, #128	; 0x80
10004ce0:	1c37      	adds	r7, r6, #0
10004ce2:	0119      	lsls	r1, r3, #4
10004ce4:	2604      	movs	r6, #4
10004ce6:	2300      	movs	r3, #0
10004ce8:	e637      	b.n	1000495a <__aeabi_dsub+0x156>
10004cea:	3f01      	subs	r7, #1
10004cec:	2f00      	cmp	r7, #0
10004cee:	d16e      	bne.n	10004dce <__aeabi_dsub+0x5ca>
10004cf0:	4654      	mov	r4, sl
10004cf2:	4661      	mov	r1, ip
10004cf4:	1b65      	subs	r5, r4, r5
10004cf6:	1a40      	subs	r0, r0, r1
10004cf8:	e768      	b.n	10004bcc <__aeabi_dsub+0x3c8>
10004cfa:	4667      	mov	r7, ip
10004cfc:	433d      	orrs	r5, r7
10004cfe:	2300      	movs	r3, #0
10004d00:	2d00      	cmp	r5, #0
10004d02:	d100      	bne.n	10004d06 <__aeabi_dsub+0x502>
10004d04:	e75f      	b.n	10004bc6 <__aeabi_dsub+0x3c2>
10004d06:	2501      	movs	r5, #1
10004d08:	e75d      	b.n	10004bc6 <__aeabi_dsub+0x3c2>
10004d0a:	2680      	movs	r6, #128	; 0x80
10004d0c:	0131      	lsls	r1, r6, #4
10004d0e:	2300      	movs	r3, #0
10004d10:	2604      	movs	r6, #4
10004d12:	e622      	b.n	1000495a <__aeabi_dsub+0x156>
10004d14:	4968      	ldr	r1, [pc, #416]	; (10004eb8 <__aeabi_dsub+0x6b4>)
10004d16:	428a      	cmp	r2, r1
10004d18:	d100      	bne.n	10004d1c <__aeabi_dsub+0x518>
10004d1a:	e0c1      	b.n	10004ea0 <__aeabi_dsub+0x69c>
10004d1c:	2780      	movs	r7, #128	; 0x80
10004d1e:	4666      	mov	r6, ip
10004d20:	0439      	lsls	r1, r7, #16
10004d22:	430e      	orrs	r6, r1
10004d24:	46b4      	mov	ip, r6
10004d26:	2b38      	cmp	r3, #56	; 0x38
10004d28:	dd00      	ble.n	10004d2c <__aeabi_dsub+0x528>
10004d2a:	e0a2      	b.n	10004e72 <__aeabi_dsub+0x66e>
10004d2c:	2b1f      	cmp	r3, #31
10004d2e:	dd00      	ble.n	10004d32 <__aeabi_dsub+0x52e>
10004d30:	e0d0      	b.n	10004ed4 <__aeabi_dsub+0x6d0>
10004d32:	2120      	movs	r1, #32
10004d34:	1ac9      	subs	r1, r1, r3
10004d36:	1c2e      	adds	r6, r5, #0
10004d38:	4667      	mov	r7, ip
10004d3a:	408f      	lsls	r7, r1
10004d3c:	408d      	lsls	r5, r1
10004d3e:	40de      	lsrs	r6, r3
10004d40:	433e      	orrs	r6, r7
10004d42:	1c29      	adds	r1, r5, #0
10004d44:	4667      	mov	r7, ip
10004d46:	1e4d      	subs	r5, r1, #1
10004d48:	41a9      	sbcs	r1, r5
10004d4a:	40df      	lsrs	r7, r3
10004d4c:	1c35      	adds	r5, r6, #0
10004d4e:	430d      	orrs	r5, r1
10004d50:	1c3e      	adds	r6, r7, #0
10004d52:	4455      	add	r5, sl
10004d54:	4555      	cmp	r5, sl
10004d56:	419b      	sbcs	r3, r3
10004d58:	1830      	adds	r0, r6, r0
10004d5a:	425e      	negs	r6, r3
10004d5c:	1983      	adds	r3, r0, r6
10004d5e:	1c17      	adds	r7, r2, #0
10004d60:	e63a      	b.n	100049d8 <__aeabi_dsub+0x1d4>
10004d62:	4656      	mov	r6, sl
10004d64:	4306      	orrs	r6, r0
10004d66:	d054      	beq.n	10004e12 <__aeabi_dsub+0x60e>
10004d68:	4657      	mov	r7, sl
10004d6a:	1bea      	subs	r2, r5, r7
10004d6c:	4663      	mov	r3, ip
10004d6e:	4295      	cmp	r5, r2
10004d70:	41b6      	sbcs	r6, r6
10004d72:	1a19      	subs	r1, r3, r0
10004d74:	4273      	negs	r3, r6
10004d76:	1acb      	subs	r3, r1, r3
10004d78:	021e      	lsls	r6, r3, #8
10004d7a:	d400      	bmi.n	10004d7e <__aeabi_dsub+0x57a>
10004d7c:	e0a2      	b.n	10004ec4 <__aeabi_dsub+0x6c0>
10004d7e:	1b7d      	subs	r5, r7, r5
10004d80:	4664      	mov	r4, ip
10004d82:	45aa      	cmp	sl, r5
10004d84:	41bf      	sbcs	r7, r7
10004d86:	1b00      	subs	r0, r0, r4
10004d88:	427a      	negs	r2, r7
10004d8a:	1a83      	subs	r3, r0, r2
10004d8c:	464c      	mov	r4, r9
10004d8e:	2101      	movs	r1, #1
10004d90:	2700      	movs	r7, #0
10004d92:	e5c9      	b.n	10004928 <__aeabi_dsub+0x124>
10004d94:	4656      	mov	r6, sl
10004d96:	4306      	orrs	r6, r0
10004d98:	d03f      	beq.n	10004e1a <__aeabi_dsub+0x616>
10004d9a:	4662      	mov	r2, ip
10004d9c:	2180      	movs	r1, #128	; 0x80
10004d9e:	0757      	lsls	r7, r2, #29
10004da0:	08ed      	lsrs	r5, r5, #3
10004da2:	08d3      	lsrs	r3, r2, #3
10004da4:	030a      	lsls	r2, r1, #12
10004da6:	433d      	orrs	r5, r7
10004da8:	4213      	tst	r3, r2
10004daa:	d008      	beq.n	10004dbe <__aeabi_dsub+0x5ba>
10004dac:	08c6      	lsrs	r6, r0, #3
10004dae:	4216      	tst	r6, r2
10004db0:	d105      	bne.n	10004dbe <__aeabi_dsub+0x5ba>
10004db2:	4655      	mov	r5, sl
10004db4:	08ec      	lsrs	r4, r5, #3
10004db6:	0745      	lsls	r5, r0, #29
10004db8:	4325      	orrs	r5, r4
10004dba:	1c33      	adds	r3, r6, #0
10004dbc:	464c      	mov	r4, r9
10004dbe:	0f68      	lsrs	r0, r5, #29
10004dc0:	00db      	lsls	r3, r3, #3
10004dc2:	2680      	movs	r6, #128	; 0x80
10004dc4:	4303      	orrs	r3, r0
10004dc6:	00ed      	lsls	r5, r5, #3
10004dc8:	0131      	lsls	r1, r6, #4
10004dca:	4f3b      	ldr	r7, [pc, #236]	; (10004eb8 <__aeabi_dsub+0x6b4>)
10004dcc:	e5ac      	b.n	10004928 <__aeabi_dsub+0x124>
10004dce:	493a      	ldr	r1, [pc, #232]	; (10004eb8 <__aeabi_dsub+0x6b4>)
10004dd0:	428a      	cmp	r2, r1
10004dd2:	d000      	beq.n	10004dd6 <__aeabi_dsub+0x5d2>
10004dd4:	e6e4      	b.n	10004ba0 <__aeabi_dsub+0x39c>
10004dd6:	2680      	movs	r6, #128	; 0x80
10004dd8:	1c03      	adds	r3, r0, #0
10004dda:	4655      	mov	r5, sl
10004ddc:	464c      	mov	r4, r9
10004dde:	0131      	lsls	r1, r6, #4
10004de0:	1c17      	adds	r7, r2, #0
10004de2:	e5a1      	b.n	10004928 <__aeabi_dsub+0x124>
10004de4:	2f00      	cmp	r7, #0
10004de6:	d04c      	beq.n	10004e82 <__aeabi_dsub+0x67e>
10004de8:	4653      	mov	r3, sl
10004dea:	4303      	orrs	r3, r0
10004dec:	d015      	beq.n	10004e1a <__aeabi_dsub+0x616>
10004dee:	4662      	mov	r2, ip
10004df0:	2680      	movs	r6, #128	; 0x80
10004df2:	08ed      	lsrs	r5, r5, #3
10004df4:	0751      	lsls	r1, r2, #29
10004df6:	08d3      	lsrs	r3, r2, #3
10004df8:	0337      	lsls	r7, r6, #12
10004dfa:	430d      	orrs	r5, r1
10004dfc:	423b      	tst	r3, r7
10004dfe:	d0de      	beq.n	10004dbe <__aeabi_dsub+0x5ba>
10004e00:	08c2      	lsrs	r2, r0, #3
10004e02:	423a      	tst	r2, r7
10004e04:	d1db      	bne.n	10004dbe <__aeabi_dsub+0x5ba>
10004e06:	4655      	mov	r5, sl
10004e08:	08e9      	lsrs	r1, r5, #3
10004e0a:	0745      	lsls	r5, r0, #29
10004e0c:	1c13      	adds	r3, r2, #0
10004e0e:	430d      	orrs	r5, r1
10004e10:	e7d5      	b.n	10004dbe <__aeabi_dsub+0x5ba>
10004e12:	4663      	mov	r3, ip
10004e14:	2101      	movs	r1, #1
10004e16:	2700      	movs	r7, #0
10004e18:	e586      	b.n	10004928 <__aeabi_dsub+0x124>
10004e1a:	2780      	movs	r7, #128	; 0x80
10004e1c:	0139      	lsls	r1, r7, #4
10004e1e:	4663      	mov	r3, ip
10004e20:	4f25      	ldr	r7, [pc, #148]	; (10004eb8 <__aeabi_dsub+0x6b4>)
10004e22:	e581      	b.n	10004928 <__aeabi_dsub+0x124>
10004e24:	2200      	movs	r2, #0
10004e26:	e73a      	b.n	10004c9e <__aeabi_dsub+0x49a>
10004e28:	1c3c      	adds	r4, r7, #0
10004e2a:	3c20      	subs	r4, #32
10004e2c:	4666      	mov	r6, ip
10004e2e:	40e6      	lsrs	r6, r4
10004e30:	1c33      	adds	r3, r6, #0
10004e32:	2f20      	cmp	r7, #32
10004e34:	d05f      	beq.n	10004ef6 <__aeabi_dsub+0x6f2>
10004e36:	2440      	movs	r4, #64	; 0x40
10004e38:	1be7      	subs	r7, r4, r7
10004e3a:	4666      	mov	r6, ip
10004e3c:	40be      	lsls	r6, r7
10004e3e:	1c31      	adds	r1, r6, #0
10004e40:	430d      	orrs	r5, r1
10004e42:	1e69      	subs	r1, r5, #1
10004e44:	418d      	sbcs	r5, r1
10004e46:	431d      	orrs	r5, r3
10004e48:	2300      	movs	r3, #0
10004e4a:	e6bc      	b.n	10004bc6 <__aeabi_dsub+0x3c2>
10004e4c:	3b01      	subs	r3, #1
10004e4e:	2b00      	cmp	r3, #0
10004e50:	d122      	bne.n	10004e98 <__aeabi_dsub+0x694>
10004e52:	4455      	add	r5, sl
10004e54:	4555      	cmp	r5, sl
10004e56:	41bf      	sbcs	r7, r7
10004e58:	427b      	negs	r3, r7
10004e5a:	4460      	add	r0, ip
10004e5c:	18c3      	adds	r3, r0, r3
10004e5e:	1c17      	adds	r7, r2, #0
10004e60:	e5ba      	b.n	100049d8 <__aeabi_dsub+0x1d4>
10004e62:	2180      	movs	r1, #128	; 0x80
10004e64:	2204      	movs	r2, #4
10004e66:	2400      	movs	r4, #0
10004e68:	0109      	lsls	r1, r1, #4
10004e6a:	4b15      	ldr	r3, [pc, #84]	; (10004ec0 <__aeabi_dsub+0x6bc>)
10004e6c:	4256      	negs	r6, r2
10004e6e:	4f12      	ldr	r7, [pc, #72]	; (10004eb8 <__aeabi_dsub+0x6b4>)
10004e70:	e573      	b.n	1000495a <__aeabi_dsub+0x156>
10004e72:	4663      	mov	r3, ip
10004e74:	431d      	orrs	r5, r3
10004e76:	2600      	movs	r6, #0
10004e78:	2d00      	cmp	r5, #0
10004e7a:	d100      	bne.n	10004e7e <__aeabi_dsub+0x67a>
10004e7c:	e769      	b.n	10004d52 <__aeabi_dsub+0x54e>
10004e7e:	2501      	movs	r5, #1
10004e80:	e767      	b.n	10004d52 <__aeabi_dsub+0x54e>
10004e82:	2280      	movs	r2, #128	; 0x80
10004e84:	1c03      	adds	r3, r0, #0
10004e86:	4655      	mov	r5, sl
10004e88:	0111      	lsls	r1, r2, #4
10004e8a:	4f0b      	ldr	r7, [pc, #44]	; (10004eb8 <__aeabi_dsub+0x6b4>)
10004e8c:	e54c      	b.n	10004928 <__aeabi_dsub+0x124>
10004e8e:	1c03      	adds	r3, r0, #0
10004e90:	4655      	mov	r5, sl
10004e92:	2101      	movs	r1, #1
10004e94:	2700      	movs	r7, #0
10004e96:	e547      	b.n	10004928 <__aeabi_dsub+0x124>
10004e98:	4907      	ldr	r1, [pc, #28]	; (10004eb8 <__aeabi_dsub+0x6b4>)
10004e9a:	428a      	cmp	r2, r1
10004e9c:	d000      	beq.n	10004ea0 <__aeabi_dsub+0x69c>
10004e9e:	e742      	b.n	10004d26 <__aeabi_dsub+0x522>
10004ea0:	2180      	movs	r1, #128	; 0x80
10004ea2:	1c03      	adds	r3, r0, #0
10004ea4:	4655      	mov	r5, sl
10004ea6:	0109      	lsls	r1, r1, #4
10004ea8:	1c17      	adds	r7, r2, #0
10004eaa:	e53d      	b.n	10004928 <__aeabi_dsub+0x124>
10004eac:	057f      	lsls	r7, r7, #21
10004eae:	0d7f      	lsrs	r7, r7, #21
10004eb0:	2600      	movs	r6, #0
10004eb2:	2200      	movs	r2, #0
10004eb4:	e55e      	b.n	10004974 <__aeabi_dsub+0x170>
10004eb6:	46c0      	nop			; (mov r8, r8)
10004eb8:	000007ff 	.word	0x000007ff
10004ebc:	ff7fffff 	.word	0xff7fffff
10004ec0:	007fffff 	.word	0x007fffff
10004ec4:	1c1d      	adds	r5, r3, #0
10004ec6:	4315      	orrs	r5, r2
10004ec8:	d100      	bne.n	10004ecc <__aeabi_dsub+0x6c8>
10004eca:	e689      	b.n	10004be0 <__aeabi_dsub+0x3dc>
10004ecc:	1c15      	adds	r5, r2, #0
10004ece:	2101      	movs	r1, #1
10004ed0:	2700      	movs	r7, #0
10004ed2:	e529      	b.n	10004928 <__aeabi_dsub+0x124>
10004ed4:	1c1f      	adds	r7, r3, #0
10004ed6:	3f20      	subs	r7, #32
10004ed8:	4661      	mov	r1, ip
10004eda:	40f9      	lsrs	r1, r7
10004edc:	2b20      	cmp	r3, #32
10004ede:	d010      	beq.n	10004f02 <__aeabi_dsub+0x6fe>
10004ee0:	2640      	movs	r6, #64	; 0x40
10004ee2:	1af3      	subs	r3, r6, r3
10004ee4:	4667      	mov	r7, ip
10004ee6:	409f      	lsls	r7, r3
10004ee8:	1c3b      	adds	r3, r7, #0
10004eea:	431d      	orrs	r5, r3
10004eec:	1e6b      	subs	r3, r5, #1
10004eee:	419d      	sbcs	r5, r3
10004ef0:	430d      	orrs	r5, r1
10004ef2:	2600      	movs	r6, #0
10004ef4:	e72d      	b.n	10004d52 <__aeabi_dsub+0x54e>
10004ef6:	2100      	movs	r1, #0
10004ef8:	e7a2      	b.n	10004e40 <__aeabi_dsub+0x63c>
10004efa:	1c3d      	adds	r5, r7, #0
10004efc:	2101      	movs	r1, #1
10004efe:	2700      	movs	r7, #0
10004f00:	e512      	b.n	10004928 <__aeabi_dsub+0x124>
10004f02:	2300      	movs	r3, #0
10004f04:	e7f1      	b.n	10004eea <__aeabi_dsub+0x6e6>
10004f06:	46c0      	nop			; (mov r8, r8)

10004f08 <__aeabi_d2iz>:
10004f08:	4a13      	ldr	r2, [pc, #76]	; (10004f58 <__aeabi_d2iz+0x50>)
10004f0a:	030b      	lsls	r3, r1, #12
10004f0c:	b530      	push	{r4, r5, lr}
10004f0e:	1c05      	adds	r5, r0, #0
10004f10:	0048      	lsls	r0, r1, #1
10004f12:	0b1c      	lsrs	r4, r3, #12
10004f14:	0fc9      	lsrs	r1, r1, #31
10004f16:	0d43      	lsrs	r3, r0, #21
10004f18:	2000      	movs	r0, #0
10004f1a:	4293      	cmp	r3, r2
10004f1c:	dd11      	ble.n	10004f42 <__aeabi_d2iz+0x3a>
10004f1e:	480f      	ldr	r0, [pc, #60]	; (10004f5c <__aeabi_d2iz+0x54>)
10004f20:	4283      	cmp	r3, r0
10004f22:	dc0f      	bgt.n	10004f44 <__aeabi_d2iz+0x3c>
10004f24:	2280      	movs	r2, #128	; 0x80
10004f26:	0350      	lsls	r0, r2, #13
10004f28:	4a0d      	ldr	r2, [pc, #52]	; (10004f60 <__aeabi_d2iz+0x58>)
10004f2a:	4304      	orrs	r4, r0
10004f2c:	1ad0      	subs	r0, r2, r3
10004f2e:	281f      	cmp	r0, #31
10004f30:	dd0b      	ble.n	10004f4a <__aeabi_d2iz+0x42>
10004f32:	4d0c      	ldr	r5, [pc, #48]	; (10004f64 <__aeabi_d2iz+0x5c>)
10004f34:	1aeb      	subs	r3, r5, r3
10004f36:	40dc      	lsrs	r4, r3
10004f38:	1c22      	adds	r2, r4, #0
10004f3a:	4250      	negs	r0, r2
10004f3c:	2900      	cmp	r1, #0
10004f3e:	d100      	bne.n	10004f42 <__aeabi_d2iz+0x3a>
10004f40:	1c10      	adds	r0, r2, #0
10004f42:	bd30      	pop	{r4, r5, pc}
10004f44:	4c08      	ldr	r4, [pc, #32]	; (10004f68 <__aeabi_d2iz+0x60>)
10004f46:	1908      	adds	r0, r1, r4
10004f48:	e7fb      	b.n	10004f42 <__aeabi_d2iz+0x3a>
10004f4a:	40c5      	lsrs	r5, r0
10004f4c:	4807      	ldr	r0, [pc, #28]	; (10004f6c <__aeabi_d2iz+0x64>)
10004f4e:	1c2a      	adds	r2, r5, #0
10004f50:	181d      	adds	r5, r3, r0
10004f52:	40ac      	lsls	r4, r5
10004f54:	4322      	orrs	r2, r4
10004f56:	e7f0      	b.n	10004f3a <__aeabi_d2iz+0x32>
10004f58:	000003fe 	.word	0x000003fe
10004f5c:	0000041d 	.word	0x0000041d
10004f60:	00000433 	.word	0x00000433
10004f64:	00000413 	.word	0x00000413
10004f68:	7fffffff 	.word	0x7fffffff
10004f6c:	fffffbed 	.word	0xfffffbed

10004f70 <__aeabi_i2d>:
10004f70:	b5f8      	push	{r3, r4, r5, r6, r7, lr}
10004f72:	1e04      	subs	r4, r0, #0
10004f74:	d02d      	beq.n	10004fd2 <__aeabi_i2d+0x62>
10004f76:	0fc5      	lsrs	r5, r0, #31
10004f78:	d000      	beq.n	10004f7c <__aeabi_i2d+0xc>
10004f7a:	4244      	negs	r4, r0
10004f7c:	1c20      	adds	r0, r4, #0
10004f7e:	f000 f927 	bl	100051d0 <__clzsi2>
10004f82:	4916      	ldr	r1, [pc, #88]	; (10004fdc <__aeabi_i2d+0x6c>)
10004f84:	1a0a      	subs	r2, r1, r0
10004f86:	280a      	cmp	r0, #10
10004f88:	dd16      	ble.n	10004fb8 <__aeabi_i2d+0x48>
10004f8a:	380b      	subs	r0, #11
10004f8c:	4084      	lsls	r4, r0
10004f8e:	0557      	lsls	r7, r2, #21
10004f90:	0326      	lsls	r6, r4, #12
10004f92:	0d7a      	lsrs	r2, r7, #21
10004f94:	0b36      	lsrs	r6, r6, #12
10004f96:	2700      	movs	r7, #0
10004f98:	2000      	movs	r0, #0
10004f9a:	2100      	movs	r1, #0
10004f9c:	1c38      	adds	r0, r7, #0
10004f9e:	0d0f      	lsrs	r7, r1, #20
10004fa0:	053b      	lsls	r3, r7, #20
10004fa2:	4c0f      	ldr	r4, [pc, #60]	; (10004fe0 <__aeabi_i2d+0x70>)
10004fa4:	4333      	orrs	r3, r6
10004fa6:	401c      	ands	r4, r3
10004fa8:	0516      	lsls	r6, r2, #20
10004faa:	4334      	orrs	r4, r6
10004fac:	0061      	lsls	r1, r4, #1
10004fae:	084a      	lsrs	r2, r1, #1
10004fb0:	07ed      	lsls	r5, r5, #31
10004fb2:	1c11      	adds	r1, r2, #0
10004fb4:	4329      	orrs	r1, r5
10004fb6:	bdf8      	pop	{r3, r4, r5, r6, r7, pc}
10004fb8:	260b      	movs	r6, #11
10004fba:	1c01      	adds	r1, r0, #0
10004fbc:	1a30      	subs	r0, r6, r0
10004fbe:	3115      	adds	r1, #21
10004fc0:	1c23      	adds	r3, r4, #0
10004fc2:	40c4      	lsrs	r4, r0
10004fc4:	408b      	lsls	r3, r1
10004fc6:	0552      	lsls	r2, r2, #21
10004fc8:	0321      	lsls	r1, r4, #12
10004fca:	1c1f      	adds	r7, r3, #0
10004fcc:	0b0e      	lsrs	r6, r1, #12
10004fce:	0d52      	lsrs	r2, r2, #21
10004fd0:	e7e2      	b.n	10004f98 <__aeabi_i2d+0x28>
10004fd2:	2500      	movs	r5, #0
10004fd4:	2200      	movs	r2, #0
10004fd6:	2600      	movs	r6, #0
10004fd8:	2700      	movs	r7, #0
10004fda:	e7dd      	b.n	10004f98 <__aeabi_i2d+0x28>
10004fdc:	0000041e 	.word	0x0000041e
10004fe0:	800fffff 	.word	0x800fffff

10004fe4 <__aeabi_f2d>:
10004fe4:	0041      	lsls	r1, r0, #1
10004fe6:	b570      	push	{r4, r5, r6, lr}
10004fe8:	0e0e      	lsrs	r6, r1, #24
10004fea:	1c73      	adds	r3, r6, #1
10004fec:	0242      	lsls	r2, r0, #9
10004fee:	0fc5      	lsrs	r5, r0, #31
10004ff0:	b2d8      	uxtb	r0, r3
10004ff2:	0a54      	lsrs	r4, r2, #9
10004ff4:	2801      	cmp	r0, #1
10004ff6:	dd15      	ble.n	10005024 <__aeabi_f2d+0x40>
10004ff8:	0763      	lsls	r3, r4, #29
10004ffa:	24e0      	movs	r4, #224	; 0xe0
10004ffc:	00a0      	lsls	r0, r4, #2
10004ffe:	0b12      	lsrs	r2, r2, #12
10005000:	1834      	adds	r4, r6, r0
10005002:	2000      	movs	r0, #0
10005004:	2100      	movs	r1, #0
10005006:	1c18      	adds	r0, r3, #0
10005008:	0d0b      	lsrs	r3, r1, #20
1000500a:	051e      	lsls	r6, r3, #20
1000500c:	4b1c      	ldr	r3, [pc, #112]	; (10005080 <__aeabi_f2d+0x9c>)
1000500e:	4332      	orrs	r2, r6
10005010:	0561      	lsls	r1, r4, #21
10005012:	084c      	lsrs	r4, r1, #1
10005014:	4013      	ands	r3, r2
10005016:	4323      	orrs	r3, r4
10005018:	005a      	lsls	r2, r3, #1
1000501a:	0856      	lsrs	r6, r2, #1
1000501c:	07ed      	lsls	r5, r5, #31
1000501e:	1c31      	adds	r1, r6, #0
10005020:	4329      	orrs	r1, r5
10005022:	bd70      	pop	{r4, r5, r6, pc}
10005024:	2e00      	cmp	r6, #0
10005026:	d116      	bne.n	10005056 <__aeabi_f2d+0x72>
10005028:	2c00      	cmp	r4, #0
1000502a:	d01e      	beq.n	1000506a <__aeabi_f2d+0x86>
1000502c:	1c20      	adds	r0, r4, #0
1000502e:	f000 f8cf 	bl	100051d0 <__clzsi2>
10005032:	280a      	cmp	r0, #10
10005034:	dc1d      	bgt.n	10005072 <__aeabi_f2d+0x8e>
10005036:	220b      	movs	r2, #11
10005038:	1a11      	subs	r1, r2, r0
1000503a:	1c02      	adds	r2, r0, #0
1000503c:	1c23      	adds	r3, r4, #0
1000503e:	3215      	adds	r2, #21
10005040:	40cb      	lsrs	r3, r1
10005042:	4094      	lsls	r4, r2
10005044:	1c1e      	adds	r6, r3, #0
10005046:	1c23      	adds	r3, r4, #0
10005048:	0334      	lsls	r4, r6, #12
1000504a:	4e0e      	ldr	r6, [pc, #56]	; (10005084 <__aeabi_f2d+0xa0>)
1000504c:	0b22      	lsrs	r2, r4, #12
1000504e:	1a30      	subs	r0, r6, r0
10005050:	0541      	lsls	r1, r0, #21
10005052:	0d4c      	lsrs	r4, r1, #21
10005054:	e7d5      	b.n	10005002 <__aeabi_f2d+0x1e>
10005056:	2c00      	cmp	r4, #0
10005058:	d003      	beq.n	10005062 <__aeabi_f2d+0x7e>
1000505a:	0763      	lsls	r3, r4, #29
1000505c:	0b12      	lsrs	r2, r2, #12
1000505e:	4c0a      	ldr	r4, [pc, #40]	; (10005088 <__aeabi_f2d+0xa4>)
10005060:	e7cf      	b.n	10005002 <__aeabi_f2d+0x1e>
10005062:	4c09      	ldr	r4, [pc, #36]	; (10005088 <__aeabi_f2d+0xa4>)
10005064:	2200      	movs	r2, #0
10005066:	2300      	movs	r3, #0
10005068:	e7cb      	b.n	10005002 <__aeabi_f2d+0x1e>
1000506a:	2400      	movs	r4, #0
1000506c:	2200      	movs	r2, #0
1000506e:	2300      	movs	r3, #0
10005070:	e7c7      	b.n	10005002 <__aeabi_f2d+0x1e>
10005072:	1c01      	adds	r1, r0, #0
10005074:	390b      	subs	r1, #11
10005076:	408c      	lsls	r4, r1
10005078:	1c26      	adds	r6, r4, #0
1000507a:	2300      	movs	r3, #0
1000507c:	e7e4      	b.n	10005048 <__aeabi_f2d+0x64>
1000507e:	46c0      	nop			; (mov r8, r8)
10005080:	800fffff 	.word	0x800fffff
10005084:	00000389 	.word	0x00000389
10005088:	000007ff 	.word	0x000007ff

1000508c <__aeabi_d2f>:
1000508c:	b5f0      	push	{r4, r5, r6, r7, lr}
1000508e:	1c04      	adds	r4, r0, #0
10005090:	0048      	lsls	r0, r1, #1
10005092:	0d40      	lsrs	r0, r0, #21
10005094:	030a      	lsls	r2, r1, #12
10005096:	0fcd      	lsrs	r5, r1, #31
10005098:	1c41      	adds	r1, r0, #1
1000509a:	0f63      	lsrs	r3, r4, #29
1000509c:	0a52      	lsrs	r2, r2, #9
1000509e:	054f      	lsls	r7, r1, #21
100050a0:	431a      	orrs	r2, r3
100050a2:	00e6      	lsls	r6, r4, #3
100050a4:	0d7b      	lsrs	r3, r7, #21
100050a6:	2b01      	cmp	r3, #1
100050a8:	dd3b      	ble.n	10005122 <__aeabi_d2f+0x96>
100050aa:	4942      	ldr	r1, [pc, #264]	; (100051b4 <__aeabi_d2f+0x128>)
100050ac:	1843      	adds	r3, r0, r1
100050ae:	2bfe      	cmp	r3, #254	; 0xfe
100050b0:	dc2c      	bgt.n	1000510c <__aeabi_d2f+0x80>
100050b2:	2b00      	cmp	r3, #0
100050b4:	dd4e      	ble.n	10005154 <__aeabi_d2f+0xc8>
100050b6:	01a4      	lsls	r4, r4, #6
100050b8:	0f77      	lsrs	r7, r6, #29
100050ba:	00d2      	lsls	r2, r2, #3
100050bc:	1e61      	subs	r1, r4, #1
100050be:	418c      	sbcs	r4, r1
100050c0:	4e3d      	ldr	r6, [pc, #244]	; (100051b8 <__aeabi_d2f+0x12c>)
100050c2:	4322      	orrs	r2, r4
100050c4:	1980      	adds	r0, r0, r6
100050c6:	433a      	orrs	r2, r7
100050c8:	260f      	movs	r6, #15
100050ca:	4016      	ands	r6, r2
100050cc:	2e04      	cmp	r6, #4
100050ce:	d147      	bne.n	10005160 <__aeabi_d2f+0xd4>
100050d0:	2780      	movs	r7, #128	; 0x80
100050d2:	04fc      	lsls	r4, r7, #19
100050d4:	4014      	ands	r4, r2
100050d6:	d01d      	beq.n	10005114 <__aeabi_d2f+0x88>
100050d8:	28ff      	cmp	r0, #255	; 0xff
100050da:	d038      	beq.n	1000514e <__aeabi_d2f+0xc2>
100050dc:	4b37      	ldr	r3, [pc, #220]	; (100051bc <__aeabi_d2f+0x130>)
100050de:	401a      	ands	r2, r3
100050e0:	1c03      	adds	r3, r0, #0
100050e2:	3001      	adds	r0, #1
100050e4:	b2c6      	uxtb	r6, r0
100050e6:	08d2      	lsrs	r2, r2, #3
100050e8:	2e01      	cmp	r6, #1
100050ea:	dc17      	bgt.n	1000511c <__aeabi_d2f+0x90>
100050ec:	2a00      	cmp	r2, #0
100050ee:	d006      	beq.n	100050fe <__aeabi_d2f+0x72>
100050f0:	2b00      	cmp	r3, #0
100050f2:	d029      	beq.n	10005148 <__aeabi_d2f+0xbc>
100050f4:	2780      	movs	r7, #128	; 0x80
100050f6:	03fc      	lsls	r4, r7, #15
100050f8:	4322      	orrs	r2, r4
100050fa:	0251      	lsls	r1, r2, #9
100050fc:	0a4a      	lsrs	r2, r1, #9
100050fe:	b2db      	uxtb	r3, r3
10005100:	05db      	lsls	r3, r3, #23
10005102:	431a      	orrs	r2, r3
10005104:	07ed      	lsls	r5, r5, #31
10005106:	1c10      	adds	r0, r2, #0
10005108:	4328      	orrs	r0, r5
1000510a:	bdf0      	pop	{r4, r5, r6, r7, pc}
1000510c:	2180      	movs	r1, #128	; 0x80
1000510e:	0048      	lsls	r0, r1, #1
10005110:	2204      	movs	r2, #4
10005112:	23ff      	movs	r3, #255	; 0xff
10005114:	b2c6      	uxtb	r6, r0
10005116:	08d2      	lsrs	r2, r2, #3
10005118:	2e01      	cmp	r6, #1
1000511a:	dde7      	ble.n	100050ec <__aeabi_d2f+0x60>
1000511c:	0251      	lsls	r1, r2, #9
1000511e:	0a4a      	lsrs	r2, r1, #9
10005120:	e7ed      	b.n	100050fe <__aeabi_d2f+0x72>
10005122:	2800      	cmp	r0, #0
10005124:	d106      	bne.n	10005134 <__aeabi_d2f+0xa8>
10005126:	4332      	orrs	r2, r6
10005128:	2001      	movs	r0, #1
1000512a:	2a00      	cmp	r2, #0
1000512c:	d115      	bne.n	1000515a <__aeabi_d2f+0xce>
1000512e:	2204      	movs	r2, #4
10005130:	2300      	movs	r3, #0
10005132:	e7ef      	b.n	10005114 <__aeabi_d2f+0x88>
10005134:	4316      	orrs	r6, r2
10005136:	d0e9      	beq.n	1000510c <__aeabi_d2f+0x80>
10005138:	2480      	movs	r4, #128	; 0x80
1000513a:	04a0      	lsls	r0, r4, #18
1000513c:	00d2      	lsls	r2, r2, #3
1000513e:	2680      	movs	r6, #128	; 0x80
10005140:	4302      	orrs	r2, r0
10005142:	23ff      	movs	r3, #255	; 0xff
10005144:	0070      	lsls	r0, r6, #1
10005146:	e7bf      	b.n	100050c8 <__aeabi_d2f+0x3c>
10005148:	0250      	lsls	r0, r2, #9
1000514a:	0a42      	lsrs	r2, r0, #9
1000514c:	e7d8      	b.n	10005100 <__aeabi_d2f+0x74>
1000514e:	23ff      	movs	r3, #255	; 0xff
10005150:	2200      	movs	r2, #0
10005152:	e7d5      	b.n	10005100 <__aeabi_d2f+0x74>
10005154:	3317      	adds	r3, #23
10005156:	da05      	bge.n	10005164 <__aeabi_d2f+0xd8>
10005158:	2001      	movs	r0, #1
1000515a:	2205      	movs	r2, #5
1000515c:	2300      	movs	r3, #0
1000515e:	e7d9      	b.n	10005114 <__aeabi_d2f+0x88>
10005160:	3204      	adds	r2, #4
10005162:	e7b5      	b.n	100050d0 <__aeabi_d2f+0x44>
10005164:	2380      	movs	r3, #128	; 0x80
10005166:	4f16      	ldr	r7, [pc, #88]	; (100051c0 <__aeabi_d2f+0x134>)
10005168:	0419      	lsls	r1, r3, #16
1000516a:	430a      	orrs	r2, r1
1000516c:	1a3c      	subs	r4, r7, r0
1000516e:	2c1f      	cmp	r4, #31
10005170:	dc0d      	bgt.n	1000518e <__aeabi_d2f+0x102>
10005172:	4914      	ldr	r1, [pc, #80]	; (100051c4 <__aeabi_d2f+0x138>)
10005174:	1c33      	adds	r3, r6, #0
10005176:	1847      	adds	r7, r0, r1
10005178:	40be      	lsls	r6, r7
1000517a:	1c30      	adds	r0, r6, #0
1000517c:	1e46      	subs	r6, r0, #1
1000517e:	41b0      	sbcs	r0, r6
10005180:	40ba      	lsls	r2, r7
10005182:	40e3      	lsrs	r3, r4
10005184:	4302      	orrs	r2, r0
10005186:	431a      	orrs	r2, r3
10005188:	2001      	movs	r0, #1
1000518a:	2300      	movs	r3, #0
1000518c:	e79c      	b.n	100050c8 <__aeabi_d2f+0x3c>
1000518e:	4b0e      	ldr	r3, [pc, #56]	; (100051c8 <__aeabi_d2f+0x13c>)
10005190:	1c17      	adds	r7, r2, #0
10005192:	1a19      	subs	r1, r3, r0
10005194:	40cf      	lsrs	r7, r1
10005196:	1c3b      	adds	r3, r7, #0
10005198:	2c20      	cmp	r4, #32
1000519a:	d009      	beq.n	100051b0 <__aeabi_d2f+0x124>
1000519c:	4c0b      	ldr	r4, [pc, #44]	; (100051cc <__aeabi_d2f+0x140>)
1000519e:	1900      	adds	r0, r0, r4
100051a0:	4082      	lsls	r2, r0
100051a2:	4332      	orrs	r2, r6
100051a4:	1e56      	subs	r6, r2, #1
100051a6:	41b2      	sbcs	r2, r6
100051a8:	431a      	orrs	r2, r3
100051aa:	2001      	movs	r0, #1
100051ac:	2300      	movs	r3, #0
100051ae:	e78b      	b.n	100050c8 <__aeabi_d2f+0x3c>
100051b0:	2200      	movs	r2, #0
100051b2:	e7f6      	b.n	100051a2 <__aeabi_d2f+0x116>
100051b4:	fffffc80 	.word	0xfffffc80
100051b8:	fffffc81 	.word	0xfffffc81
100051bc:	fbffffff 	.word	0xfbffffff
100051c0:	0000039e 	.word	0x0000039e
100051c4:	fffffc82 	.word	0xfffffc82
100051c8:	0000037e 	.word	0x0000037e
100051cc:	fffffca2 	.word	0xfffffca2

100051d0 <__clzsi2>:
100051d0:	211c      	movs	r1, #28
100051d2:	2301      	movs	r3, #1
100051d4:	041b      	lsls	r3, r3, #16
100051d6:	4298      	cmp	r0, r3
100051d8:	d301      	bcc.n	100051de <__clzsi2+0xe>
100051da:	0c00      	lsrs	r0, r0, #16
100051dc:	3910      	subs	r1, #16
100051de:	0a1b      	lsrs	r3, r3, #8
100051e0:	4298      	cmp	r0, r3
100051e2:	d301      	bcc.n	100051e8 <__clzsi2+0x18>
100051e4:	0a00      	lsrs	r0, r0, #8
100051e6:	3908      	subs	r1, #8
100051e8:	091b      	lsrs	r3, r3, #4
100051ea:	4298      	cmp	r0, r3
100051ec:	d301      	bcc.n	100051f2 <__clzsi2+0x22>
100051ee:	0900      	lsrs	r0, r0, #4
100051f0:	3904      	subs	r1, #4
100051f2:	a202      	add	r2, pc, #8	; (adr r2, 100051fc <__clzsi2+0x2c>)
100051f4:	5c10      	ldrb	r0, [r2, r0]
100051f6:	1840      	adds	r0, r0, r1
100051f8:	4770      	bx	lr
100051fa:	46c0      	nop			; (mov r8, r8)
100051fc:	02020304 	.word	0x02020304
10005200:	01010101 	.word	0x01010101
	...

1000520c <__errno>:
1000520c:	4b01      	ldr	r3, [pc, #4]	; (10005214 <__errno+0x8>)
1000520e:	6818      	ldr	r0, [r3, #0]
10005210:	4770      	bx	lr
10005212:	46c0      	nop			; (mov r8, r8)
10005214:	20001d88 	.word	0x20001d88

10005218 <memset>:
10005218:	b5f0      	push	{r4, r5, r6, r7, lr}
1000521a:	0783      	lsls	r3, r0, #30
1000521c:	d100      	bne.n	10005220 <memset+0x8>
1000521e:	e081      	b.n	10005324 <memset+0x10c>
10005220:	1e54      	subs	r4, r2, #1
10005222:	2a00      	cmp	r2, #0
10005224:	d07d      	beq.n	10005322 <memset+0x10a>
10005226:	b2cd      	uxtb	r5, r1
10005228:	1c03      	adds	r3, r0, #0
1000522a:	2603      	movs	r6, #3
1000522c:	07e7      	lsls	r7, r4, #31
1000522e:	d511      	bpl.n	10005254 <memset+0x3c>
10005230:	1c43      	adds	r3, r0, #1
10005232:	7005      	strb	r5, [r0, #0]
10005234:	4233      	tst	r3, r6
10005236:	d011      	beq.n	1000525c <memset+0x44>
10005238:	701d      	strb	r5, [r3, #0]
1000523a:	3301      	adds	r3, #1
1000523c:	1e94      	subs	r4, r2, #2
1000523e:	4233      	tst	r3, r6
10005240:	d00c      	beq.n	1000525c <memset+0x44>
10005242:	1e62      	subs	r2, r4, #1
10005244:	2c00      	cmp	r4, #0
10005246:	d06c      	beq.n	10005322 <memset+0x10a>
10005248:	701d      	strb	r5, [r3, #0]
1000524a:	3301      	adds	r3, #1
1000524c:	1c14      	adds	r4, r2, #0
1000524e:	4233      	tst	r3, r6
10005250:	d004      	beq.n	1000525c <memset+0x44>
10005252:	3c01      	subs	r4, #1
10005254:	701d      	strb	r5, [r3, #0]
10005256:	3301      	adds	r3, #1
10005258:	4233      	tst	r3, r6
1000525a:	d1f2      	bne.n	10005242 <memset+0x2a>
1000525c:	2c03      	cmp	r4, #3
1000525e:	d949      	bls.n	100052f4 <memset+0xdc>
10005260:	22ff      	movs	r2, #255	; 0xff
10005262:	400a      	ands	r2, r1
10005264:	0217      	lsls	r7, r2, #8
10005266:	433a      	orrs	r2, r7
10005268:	0415      	lsls	r5, r2, #16
1000526a:	432a      	orrs	r2, r5
1000526c:	2c0f      	cmp	r4, #15
1000526e:	d95c      	bls.n	1000532a <memset+0x112>
10005270:	1c26      	adds	r6, r4, #0
10005272:	3e10      	subs	r6, #16
10005274:	0937      	lsrs	r7, r6, #4
10005276:	3701      	adds	r7, #1
10005278:	013d      	lsls	r5, r7, #4
1000527a:	195e      	adds	r6, r3, r5
1000527c:	3d10      	subs	r5, #16
1000527e:	06ef      	lsls	r7, r5, #27
10005280:	601a      	str	r2, [r3, #0]
10005282:	605a      	str	r2, [r3, #4]
10005284:	609a      	str	r2, [r3, #8]
10005286:	60da      	str	r2, [r3, #12]
10005288:	3310      	adds	r3, #16
1000528a:	0ffd      	lsrs	r5, r7, #31
1000528c:	429e      	cmp	r6, r3
1000528e:	d013      	beq.n	100052b8 <memset+0xa0>
10005290:	2d00      	cmp	r5, #0
10005292:	d006      	beq.n	100052a2 <memset+0x8a>
10005294:	601a      	str	r2, [r3, #0]
10005296:	605a      	str	r2, [r3, #4]
10005298:	609a      	str	r2, [r3, #8]
1000529a:	60da      	str	r2, [r3, #12]
1000529c:	3310      	adds	r3, #16
1000529e:	429e      	cmp	r6, r3
100052a0:	d00a      	beq.n	100052b8 <memset+0xa0>
100052a2:	601a      	str	r2, [r3, #0]
100052a4:	605a      	str	r2, [r3, #4]
100052a6:	609a      	str	r2, [r3, #8]
100052a8:	60da      	str	r2, [r3, #12]
100052aa:	611a      	str	r2, [r3, #16]
100052ac:	615a      	str	r2, [r3, #20]
100052ae:	619a      	str	r2, [r3, #24]
100052b0:	61da      	str	r2, [r3, #28]
100052b2:	3320      	adds	r3, #32
100052b4:	429e      	cmp	r6, r3
100052b6:	d1f4      	bne.n	100052a2 <memset+0x8a>
100052b8:	230f      	movs	r3, #15
100052ba:	401c      	ands	r4, r3
100052bc:	1c35      	adds	r5, r6, #0
100052be:	1c33      	adds	r3, r6, #0
100052c0:	2c03      	cmp	r4, #3
100052c2:	d917      	bls.n	100052f4 <memset+0xdc>
100052c4:	1f26      	subs	r6, r4, #4
100052c6:	08b7      	lsrs	r7, r6, #2
100052c8:	3701      	adds	r7, #1
100052ca:	00be      	lsls	r6, r7, #2
100052cc:	19ab      	adds	r3, r5, r6
100052ce:	3e04      	subs	r6, #4
100052d0:	0777      	lsls	r7, r6, #29
100052d2:	c504      	stmia	r5!, {r2}
100052d4:	0ffe      	lsrs	r6, r7, #31
100052d6:	429d      	cmp	r5, r3
100052d8:	d00a      	beq.n	100052f0 <memset+0xd8>
100052da:	2e00      	cmp	r6, #0
100052dc:	d002      	beq.n	100052e4 <memset+0xcc>
100052de:	c504      	stmia	r5!, {r2}
100052e0:	429d      	cmp	r5, r3
100052e2:	d005      	beq.n	100052f0 <memset+0xd8>
100052e4:	1c2f      	adds	r7, r5, #0
100052e6:	c704      	stmia	r7!, {r2}
100052e8:	606a      	str	r2, [r5, #4]
100052ea:	1d3d      	adds	r5, r7, #4
100052ec:	429d      	cmp	r5, r3
100052ee:	d1f9      	bne.n	100052e4 <memset+0xcc>
100052f0:	2203      	movs	r2, #3
100052f2:	4014      	ands	r4, r2
100052f4:	2c00      	cmp	r4, #0
100052f6:	d014      	beq.n	10005322 <memset+0x10a>
100052f8:	191c      	adds	r4, r3, r4
100052fa:	43dd      	mvns	r5, r3
100052fc:	b2c9      	uxtb	r1, r1
100052fe:	1966      	adds	r6, r4, r5
10005300:	2701      	movs	r7, #1
10005302:	7019      	strb	r1, [r3, #0]
10005304:	3301      	adds	r3, #1
10005306:	403e      	ands	r6, r7
10005308:	42a3      	cmp	r3, r4
1000530a:	d00a      	beq.n	10005322 <memset+0x10a>
1000530c:	2e00      	cmp	r6, #0
1000530e:	d003      	beq.n	10005318 <memset+0x100>
10005310:	7019      	strb	r1, [r3, #0]
10005312:	3301      	adds	r3, #1
10005314:	42a3      	cmp	r3, r4
10005316:	d004      	beq.n	10005322 <memset+0x10a>
10005318:	7019      	strb	r1, [r3, #0]
1000531a:	7059      	strb	r1, [r3, #1]
1000531c:	3302      	adds	r3, #2
1000531e:	42a3      	cmp	r3, r4
10005320:	d1fa      	bne.n	10005318 <memset+0x100>
10005322:	bdf0      	pop	{r4, r5, r6, r7, pc}
10005324:	1c03      	adds	r3, r0, #0
10005326:	1c14      	adds	r4, r2, #0
10005328:	e798      	b.n	1000525c <memset+0x44>
1000532a:	1c1d      	adds	r5, r3, #0
1000532c:	e7ca      	b.n	100052c4 <memset+0xac>
1000532e:	46c0      	nop			; (mov r8, r8)

Disassembly of section .VENEER_Code:

2000000c <HardFault_Veneer>:

/* ==================VENEERS VENEERS VENEERS VENEERS VENEERS=============== */
    .section ".XmcVeneerCode","ax",%progbits
.globl HardFault_Veneer
HardFault_Veneer:
    LDR R0, =HardFault_Handler
2000000c:	482c      	ldr	r0, [pc, #176]	; (200000c0 <BCCU0_0_Veneer+0x4>)
    MOV PC,R0
2000000e:	4687      	mov	pc, r0
	...

2000002c <SVC_Veneer>:
    .long 0
    
/* ======================================================================== */
.globl SVC_Veneer
SVC_Veneer:
    LDR R0, =SVC_Handler
2000002c:	4825      	ldr	r0, [pc, #148]	; (200000c4 <BCCU0_0_Veneer+0x8>)
    MOV PC,R0
2000002e:	4687      	mov	pc, r0
	...

20000038 <PendSV_Veneer>:
    .long 0
    .long 0
/* ======================================================================== */
.globl PendSV_Veneer
PendSV_Veneer:
    LDR R0, =PendSV_Handler
20000038:	4823      	ldr	r0, [pc, #140]	; (200000c8 <BCCU0_0_Veneer+0xc>)
    MOV PC,R0
2000003a:	4687      	mov	pc, r0

2000003c <SysTick_Veneer>:
/* ======================================================================== */
.globl SysTick_Veneer 
SysTick_Veneer:
    LDR R0, =SysTick_Handler
2000003c:	4823      	ldr	r0, [pc, #140]	; (200000cc <BCCU0_0_Veneer+0x10>)
    MOV PC,R0
2000003e:	4687      	mov	pc, r0

20000040 <SCU_0_Veneer>:
/* ======================================================================== */
.globl SCU_0_Veneer 
SCU_0_Veneer:
    LDR R0, =SCU_0_IRQHandler
20000040:	4823      	ldr	r0, [pc, #140]	; (200000d0 <BCCU0_0_Veneer+0x14>)
    MOV PC,R0
20000042:	4687      	mov	pc, r0

20000044 <SCU_1_Veneer>:
/* ======================================================================== */
.globl SCU_1_Veneer 
SCU_1_Veneer:
    LDR R0, =SCU_1_IRQHandler
20000044:	4823      	ldr	r0, [pc, #140]	; (200000d4 <BCCU0_0_Veneer+0x18>)
    MOV PC,R0
20000046:	4687      	mov	pc, r0

20000048 <SCU_2_Veneer>:
/* ======================================================================== */
.globl SCU_2_Veneer
SCU_2_Veneer:
    LDR R0, =SCU_2_IRQHandler
20000048:	4823      	ldr	r0, [pc, #140]	; (200000d8 <BCCU0_0_Veneer+0x1c>)
    MOV PC,R0
2000004a:	4687      	mov	pc, r0

2000004c <SCU_3_Veneer>:
/* ======================================================================== */
.globl SCU_3_Veneer 
SCU_3_Veneer:
    LDR R0, =ERU0_0_IRQHandler
2000004c:	4823      	ldr	r0, [pc, #140]	; (200000dc <BCCU0_0_Veneer+0x20>)
    MOV PC,R0
2000004e:	4687      	mov	pc, r0

20000050 <SCU_4_Veneer>:
/* ======================================================================== */
.globl SCU_4_Veneer 
SCU_4_Veneer:
    LDR R0, =ERU0_1_IRQHandler
20000050:	4823      	ldr	r0, [pc, #140]	; (200000e0 <BCCU0_0_Veneer+0x24>)
    MOV PC,R0
20000052:	4687      	mov	pc, r0

20000054 <SCU_5_Veneer>:
/* ======================================================================== */
.globl SCU_5_Veneer 
SCU_5_Veneer:
    LDR R0, =ERU0_2_IRQHandler
20000054:	4823      	ldr	r0, [pc, #140]	; (200000e4 <BCCU0_0_Veneer+0x28>)
    MOV PC,R0
20000056:	4687      	mov	pc, r0

20000058 <SCU_6_Veneer>:
/* ======================================================================== */
.globl SCU_6_Veneer 
SCU_6_Veneer:
    LDR R0, =ERU0_3_IRQHandler
20000058:	4823      	ldr	r0, [pc, #140]	; (200000e8 <BCCU0_0_Veneer+0x2c>)
    MOV PC,R0
2000005a:	4687      	mov	pc, r0

2000005c <MATH_Veneer>:
/* ======================================================================== */
.globl MATH_Veneer 
MATH_Veneer:
    LDR R0, =MATH0_0_IRQHandler
2000005c:	4823      	ldr	r0, [pc, #140]	; (200000ec <BCCU0_0_Veneer+0x30>)
    MOV PC,R0
2000005e:	4687      	mov	pc, r0
20000060:	00000000 	.word	0x00000000

20000064 <USIC0_0_Veneer>:
    .long 0
/* ======================================================================== */
.globl USIC0_0_Veneer
USIC0_0_Veneer:
    LDR R0, =USIC0_0_IRQHandler
20000064:	4822      	ldr	r0, [pc, #136]	; (200000f0 <BCCU0_0_Veneer+0x34>)
    MOV PC,R0
20000066:	4687      	mov	pc, r0

20000068 <USIC0_1_Veneer>:
/* ======================================================================== */
.globl USIC0_1_Veneer
USIC0_1_Veneer:
    LDR R0, =USIC0_1_IRQHandler
20000068:	4822      	ldr	r0, [pc, #136]	; (200000f4 <BCCU0_0_Veneer+0x38>)
    MOV PC,R0
2000006a:	4687      	mov	pc, r0

2000006c <USIC0_2_Veneer>:
/* ======================================================================== */
.globl USIC0_2_Veneer
USIC0_2_Veneer:
    LDR R0, =USIC0_2_IRQHandler
2000006c:	4822      	ldr	r0, [pc, #136]	; (200000f8 <BCCU0_0_Veneer+0x3c>)
    MOV PC,R0
2000006e:	4687      	mov	pc, r0

20000070 <USIC0_3_Veneer>:
/* ======================================================================== */
.globl USIC0_3_Veneer
USIC0_3_Veneer:
    LDR R0, =USIC0_3_IRQHandler
20000070:	4822      	ldr	r0, [pc, #136]	; (200000fc <BCCU0_0_Veneer+0x40>)
    MOV PC,R0
20000072:	4687      	mov	pc, r0

20000074 <USIC0_4_Veneer>:
/* ======================================================================== */
.globl USIC0_4_Veneer
USIC0_4_Veneer:
    LDR R0, =USIC0_4_IRQHandler
20000074:	4822      	ldr	r0, [pc, #136]	; (20000100 <BCCU0_0_Veneer+0x44>)
    MOV PC,R0
20000076:	4687      	mov	pc, r0

20000078 <USIC0_5_Veneer>:
/* ======================================================================== */
.globl USIC0_5_Veneer
USIC0_5_Veneer:
    LDR R0, =USIC0_5_IRQHandler
20000078:	4822      	ldr	r0, [pc, #136]	; (20000104 <BCCU0_0_Veneer+0x48>)
    MOV PC,R0
2000007a:	4687      	mov	pc, r0

2000007c <VADC0_C0_0_Veneer>:
/* ======================================================================== */
.globl VADC0_C0_0_Veneer 
VADC0_C0_0_Veneer:
    LDR R0, =VADC0_C0_0_IRQHandler
2000007c:	4822      	ldr	r0, [pc, #136]	; (20000108 <BCCU0_0_Veneer+0x4c>)
    MOV PC,R0
2000007e:	4687      	mov	pc, r0

20000080 <VADC0_C0_1_Veneer>:
/* ======================================================================== */
.globl VADC0_C0_1_Veneer
VADC0_C0_1_Veneer:
    LDR R0, =VADC0_C0_1_IRQHandler
20000080:	4822      	ldr	r0, [pc, #136]	; (2000010c <BCCU0_0_Veneer+0x50>)
    MOV PC,R0
20000082:	4687      	mov	pc, r0

20000084 <VADC0_G0_0_Veneer>:
/* ======================================================================== */
.globl VADC0_G0_0_Veneer
VADC0_G0_0_Veneer:
    LDR R0, =VADC0_G0_0_IRQHandler
20000084:	4822      	ldr	r0, [pc, #136]	; (20000110 <BCCU0_0_Veneer+0x54>)
    MOV PC,R0
20000086:	4687      	mov	pc, r0

20000088 <VADC0_G0_1_Veneer>:
/* ======================================================================== */
.globl VADC0_G0_1_Veneer
VADC0_G0_1_Veneer:
    LDR R0, =VADC0_G0_1_IRQHandler
20000088:	4822      	ldr	r0, [pc, #136]	; (20000114 <BCCU0_0_Veneer+0x58>)
    MOV PC,R0
2000008a:	4687      	mov	pc, r0

2000008c <VADC0_G1_0_Veneer>:
/* ======================================================================== */
.globl VADC0_G1_0_Veneer
VADC0_G1_0_Veneer:
    LDR R0, =VADC0_G1_0_IRQHandler
2000008c:	4822      	ldr	r0, [pc, #136]	; (20000118 <BCCU0_0_Veneer+0x5c>)
    MOV PC,R0
2000008e:	4687      	mov	pc, r0

20000090 <VADC0_G1_1_Veneer>:
/* ======================================================================== */
.globl VADC0_G1_1_Veneer
VADC0_G1_1_Veneer:
    LDR R0, =VADC0_G1_1_IRQHandler
20000090:	4822      	ldr	r0, [pc, #136]	; (2000011c <BCCU0_0_Veneer+0x60>)
    MOV PC,R0
20000092:	4687      	mov	pc, r0

20000094 <CCU40_0_Veneer>:
/* ======================================================================== */
.globl CCU40_0_Veneer
CCU40_0_Veneer:
    LDR R0, =CCU40_0_IRQHandler
20000094:	4822      	ldr	r0, [pc, #136]	; (20000120 <BCCU0_0_Veneer+0x64>)
    MOV PC,R0
20000096:	4687      	mov	pc, r0

20000098 <CCU40_1_Veneer>:
/* ======================================================================== */
.globl CCU40_1_Veneer
CCU40_1_Veneer:
    LDR R0, =CCU40_1_IRQHandler
20000098:	4822      	ldr	r0, [pc, #136]	; (20000124 <BCCU0_0_Veneer+0x68>)
    MOV PC,R0
2000009a:	4687      	mov	pc, r0

2000009c <CCU40_2_Veneer>:
/* ======================================================================== */
.globl CCU40_2_Veneer
CCU40_2_Veneer:
    LDR R0, =CCU40_2_IRQHandler
2000009c:	4822      	ldr	r0, [pc, #136]	; (20000128 <BCCU0_0_Veneer+0x6c>)
    MOV PC,R0
2000009e:	4687      	mov	pc, r0

200000a0 <CCU40_3_Veneer>:
/* ======================================================================== */
.globl CCU40_3_Veneer
CCU40_3_Veneer:
    LDR R0, =CCU40_3_IRQHandler
200000a0:	4822      	ldr	r0, [pc, #136]	; (2000012c <BCCU0_0_Veneer+0x70>)
    MOV PC,R0
200000a2:	4687      	mov	pc, r0

200000a4 <CCU80_0_Veneer>:
/* ======================================================================== */
.globl CCU80_0_Veneer
CCU80_0_Veneer:
    LDR R0, =CCU80_0_IRQHandler
200000a4:	4822      	ldr	r0, [pc, #136]	; (20000130 <BCCU0_0_Veneer+0x74>)
    MOV PC,R0
200000a6:	4687      	mov	pc, r0

200000a8 <CCU80_1_Veneer>:
/* ======================================================================== */
.globl CCU80_1_Veneer
CCU80_1_Veneer:
    LDR R0, =CCU80_1_IRQHandler
200000a8:	4822      	ldr	r0, [pc, #136]	; (20000134 <BCCU0_0_Veneer+0x78>)
    MOV PC,R0
200000aa:	4687      	mov	pc, r0

200000ac <POSIF0_0_Veneer>:
/* ======================================================================== */
.globl POSIF0_0_Veneer
POSIF0_0_Veneer:
    LDR R0, =POSIF0_0_IRQHandler
200000ac:	4822      	ldr	r0, [pc, #136]	; (20000138 <BCCU0_0_Veneer+0x7c>)
    MOV PC,R0
200000ae:	4687      	mov	pc, r0

200000b0 <POSIF0_1_Veneer>:
/* ======================================================================== */
.globl POSIF0_1_Veneer
POSIF0_1_Veneer:
    LDR R0, =POSIF0_1_IRQHandler
200000b0:	4822      	ldr	r0, [pc, #136]	; (2000013c <BCCU0_0_Veneer+0x80>)
    MOV PC,R0
200000b2:	4687      	mov	pc, r0
	...

200000bc <BCCU0_0_Veneer>:
    .long 0
    .long 0
/* ======================================================================== */
    .globl BCCU0_0_Veneer
BCCU0_0_Veneer:
    LDR R0, =BCCU0_0_IRQHandler
200000bc:	4820      	ldr	r0, [pc, #128]	; (20000140 <BCCU0_0_Veneer+0x84>)
    MOV PC,R0
200000be:	4687      	mov	pc, r0

/* ==================VENEERS VENEERS VENEERS VENEERS VENEERS=============== */
    .section ".XmcVeneerCode","ax",%progbits
.globl HardFault_Veneer
HardFault_Veneer:
    LDR R0, =HardFault_Handler
200000c0:	1000119f 	.word	0x1000119f
    .long 0
    
/* ======================================================================== */
.globl SVC_Veneer
SVC_Veneer:
    LDR R0, =SVC_Handler
200000c4:	100011a1 	.word	0x100011a1
    .long 0
    .long 0
/* ======================================================================== */
.globl PendSV_Veneer
PendSV_Veneer:
    LDR R0, =PendSV_Handler
200000c8:	100011a3 	.word	0x100011a3
    MOV PC,R0
/* ======================================================================== */
.globl SysTick_Veneer 
SysTick_Veneer:
    LDR R0, =SysTick_Handler
200000cc:	100011a5 	.word	0x100011a5
    MOV PC,R0
/* ======================================================================== */
.globl SCU_0_Veneer 
SCU_0_Veneer:
    LDR R0, =SCU_0_IRQHandler
200000d0:	100011a7 	.word	0x100011a7
    MOV PC,R0
/* ======================================================================== */
.globl SCU_1_Veneer 
SCU_1_Veneer:
    LDR R0, =SCU_1_IRQHandler
200000d4:	100011a9 	.word	0x100011a9
    MOV PC,R0
/* ======================================================================== */
.globl SCU_2_Veneer
SCU_2_Veneer:
    LDR R0, =SCU_2_IRQHandler
200000d8:	100011ab 	.word	0x100011ab
    MOV PC,R0
/* ======================================================================== */
.globl SCU_3_Veneer 
SCU_3_Veneer:
    LDR R0, =ERU0_0_IRQHandler
200000dc:	100011ad 	.word	0x100011ad
    MOV PC,R0
/* ======================================================================== */
.globl SCU_4_Veneer 
SCU_4_Veneer:
    LDR R0, =ERU0_1_IRQHandler
200000e0:	100011af 	.word	0x100011af
    MOV PC,R0
/* ======================================================================== */
.globl SCU_5_Veneer 
SCU_5_Veneer:
    LDR R0, =ERU0_2_IRQHandler
200000e4:	100011b1 	.word	0x100011b1
    MOV PC,R0
/* ======================================================================== */
.globl SCU_6_Veneer 
SCU_6_Veneer:
    LDR R0, =ERU0_3_IRQHandler
200000e8:	100011b3 	.word	0x100011b3
    MOV PC,R0
/* ======================================================================== */
.globl MATH_Veneer 
MATH_Veneer:
    LDR R0, =MATH0_0_IRQHandler
200000ec:	100011b5 	.word	0x100011b5
    MOV PC,R0
    .long 0
/* ======================================================================== */
.globl USIC0_0_Veneer
USIC0_0_Veneer:
    LDR R0, =USIC0_0_IRQHandler
200000f0:	100011d3 	.word	0x100011d3
    MOV PC,R0
/* ======================================================================== */
.globl USIC0_1_Veneer
USIC0_1_Veneer:
    LDR R0, =USIC0_1_IRQHandler
200000f4:	100011d5 	.word	0x100011d5
    MOV PC,R0
/* ======================================================================== */
.globl USIC0_2_Veneer
USIC0_2_Veneer:
    LDR R0, =USIC0_2_IRQHandler
200000f8:	100011d7 	.word	0x100011d7
    MOV PC,R0
/* ======================================================================== */
.globl USIC0_3_Veneer
USIC0_3_Veneer:
    LDR R0, =USIC0_3_IRQHandler
200000fc:	100011d9 	.word	0x100011d9
    MOV PC,R0
/* ======================================================================== */
.globl USIC0_4_Veneer
USIC0_4_Veneer:
    LDR R0, =USIC0_4_IRQHandler
20000100:	100011db 	.word	0x100011db
    MOV PC,R0
/* ======================================================================== */
.globl USIC0_5_Veneer
USIC0_5_Veneer:
    LDR R0, =USIC0_5_IRQHandler
20000104:	100011dd 	.word	0x100011dd
    MOV PC,R0
/* ======================================================================== */
.globl VADC0_C0_0_Veneer 
VADC0_C0_0_Veneer:
    LDR R0, =VADC0_C0_0_IRQHandler
20000108:	100011b7 	.word	0x100011b7
    MOV PC,R0
/* ======================================================================== */
.globl VADC0_C0_1_Veneer
VADC0_C0_1_Veneer:
    LDR R0, =VADC0_C0_1_IRQHandler
2000010c:	100011b9 	.word	0x100011b9
    MOV PC,R0
/* ======================================================================== */
.globl VADC0_G0_0_Veneer
VADC0_G0_0_Veneer:
    LDR R0, =VADC0_G0_0_IRQHandler
20000110:	100011bb 	.word	0x100011bb
    MOV PC,R0
/* ======================================================================== */
.globl VADC0_G0_1_Veneer
VADC0_G0_1_Veneer:
    LDR R0, =VADC0_G0_1_IRQHandler
20000114:	100011bd 	.word	0x100011bd
    MOV PC,R0
/* ======================================================================== */
.globl VADC0_G1_0_Veneer
VADC0_G1_0_Veneer:
    LDR R0, =VADC0_G1_0_IRQHandler
20000118:	100011bf 	.word	0x100011bf
    MOV PC,R0
/* ======================================================================== */
.globl VADC0_G1_1_Veneer
VADC0_G1_1_Veneer:
    LDR R0, =VADC0_G1_1_IRQHandler
2000011c:	100011c1 	.word	0x100011c1
    MOV PC,R0
/* ======================================================================== */
.globl CCU40_0_Veneer
CCU40_0_Veneer:
    LDR R0, =CCU40_0_IRQHandler
20000120:	100011c3 	.word	0x100011c3
    MOV PC,R0
/* ======================================================================== */
.globl CCU40_1_Veneer
CCU40_1_Veneer:
    LDR R0, =CCU40_1_IRQHandler
20000124:	100011c5 	.word	0x100011c5
    MOV PC,R0
/* ======================================================================== */
.globl CCU40_2_Veneer
CCU40_2_Veneer:
    LDR R0, =CCU40_2_IRQHandler
20000128:	100011c7 	.word	0x100011c7
    MOV PC,R0
/* ======================================================================== */
.globl CCU40_3_Veneer
CCU40_3_Veneer:
    LDR R0, =CCU40_3_IRQHandler
2000012c:	100011c9 	.word	0x100011c9
    MOV PC,R0
/* ======================================================================== */
.globl CCU80_0_Veneer
CCU80_0_Veneer:
    LDR R0, =CCU80_0_IRQHandler
20000130:	100011cb 	.word	0x100011cb
    MOV PC,R0
/* ======================================================================== */
.globl CCU80_1_Veneer
CCU80_1_Veneer:
    LDR R0, =CCU80_1_IRQHandler
20000134:	100011cd 	.word	0x100011cd
    MOV PC,R0
/* ======================================================================== */
.globl POSIF0_0_Veneer
POSIF0_0_Veneer:
    LDR R0, =POSIF0_0_IRQHandler
20000138:	100011cf 	.word	0x100011cf
    MOV PC,R0
/* ======================================================================== */
.globl POSIF0_1_Veneer
POSIF0_1_Veneer:
    LDR R0, =POSIF0_1_IRQHandler
2000013c:	100011d1 	.word	0x100011d1
    .long 0
    .long 0
/* ======================================================================== */
    .globl BCCU0_0_Veneer
BCCU0_0_Veneer:
    LDR R0, =BCCU0_0_IRQHandler
20000140:	100011df 	.word	0x100011df
